ARM GAS  /tmp/ccQm9jLs.s 			page 1


   1              		.syntax unified
   2              		.cpu cortex-m3
   3              		.fpu softvfp
   4              		.eabi_attribute 20, 1
   5              		.eabi_attribute 21, 1
   6              		.eabi_attribute 23, 3
   7              		.eabi_attribute 24, 1
   8              		.eabi_attribute 25, 1
   9              		.eabi_attribute 26, 1
  10              		.eabi_attribute 30, 2
  11              		.eabi_attribute 34, 1
  12              		.eabi_attribute 18, 4
  13              		.thumb
  14              		.file	"pal_lld.c"
  15              		.text
  16              	.Ltext0:
  17              		.cfi_sections	.debug_frame
  18              		.section	.text._pal_lld_init,"ax",%progbits
  19              		.align	2
  20              		.global	_pal_lld_init
  21              		.thumb
  22              		.thumb_func
  23              		.type	_pal_lld_init, %function
  24              	_pal_lld_init:
  25              	.LFB63:
  26              		.file 1 "../../os/hal/platforms/STM32/GPIOv1/pal_lld.c"
  27              		.loc 1 77 0
  28              		.cfi_startproc
  29              		@ args = 0, pretend = 0, frame = 0
  30              		@ frame_needed = 0, uses_anonymous_args = 0
  31              		@ link register save eliminated.
  32              	.LVL0:
  33              		.loc 1 82 0
  34 0000 4FF48053 		mov	r3, #4096
  35 0004 C4F20203 		movt	r3, 16386
  36 0008 9A69     		ldr	r2, [r3, #24]
  37              		.loc 1 77 0
  38 000a 10B4     		push	{r4}
  39              		.cfi_def_cfa_offset 4
  40              		.cfi_offset 4, -4
  41              		.loc 1 82 0
  42 000c 42F07D02 		orr	r2, r2, #125
  43 0010 9A61     		str	r2, [r3, #24]
  44              		.loc 1 87 0
  45 0012 0368     		ldr	r3, [r0]
  46 0014 4FF40062 		mov	r2, #2048
  47 0018 C4F20102 		movt	r2, 16385
  48 001c D360     		str	r3, [r2, #12]
  49              		.loc 1 88 0
  50 001e 8168     		ldr	r1, [r0, #8]
  51              		.loc 1 90 0
  52 0020 4FF44063 		mov	r3, #3072
  53              		.loc 1 88 0
  54 0024 5160     		str	r1, [r2, #4]
  55              		.loc 1 89 0
  56 0026 4168     		ldr	r1, [r0, #4]
  57              		.loc 1 90 0
ARM GAS  /tmp/ccQm9jLs.s 			page 2


  58 0028 C4F20103 		movt	r3, 16385
  59              		.loc 1 89 0
  60 002c 1160     		str	r1, [r2]
  61              		.loc 1 90 0
  62 002e C268     		ldr	r2, [r0, #12]
  63              		.loc 1 93 0
  64 0030 4FF48051 		mov	r1, #4096
  65              		.loc 1 90 0
  66 0034 DA60     		str	r2, [r3, #12]
  67              		.loc 1 91 0
  68 0036 4269     		ldr	r2, [r0, #20]
  69              		.loc 1 93 0
  70 0038 C4F20101 		movt	r1, 16385
  71              		.loc 1 91 0
  72 003c 5A60     		str	r2, [r3, #4]
  73              		.loc 1 92 0
  74 003e 0469     		ldr	r4, [r0, #16]
  75              		.loc 1 96 0
  76 0040 4FF4A052 		mov	r2, #5120
  77              		.loc 1 92 0
  78 0044 1C60     		str	r4, [r3]
  79              		.loc 1 93 0
  80 0046 8369     		ldr	r3, [r0, #24]
  81              		.loc 1 96 0
  82 0048 C4F20102 		movt	r2, 16385
  83              		.loc 1 93 0
  84 004c CB60     		str	r3, [r1, #12]
  85              		.loc 1 94 0
  86 004e 046A     		ldr	r4, [r0, #32]
  87              		.loc 1 100 0
  88 0050 4FF4C053 		mov	r3, #6144
  89              		.loc 1 94 0
  90 0054 4C60     		str	r4, [r1, #4]
  91              		.loc 1 95 0
  92 0056 C469     		ldr	r4, [r0, #28]
  93              		.loc 1 100 0
  94 0058 C4F20103 		movt	r3, 16385
  95              		.loc 1 95 0
  96 005c 0C60     		str	r4, [r1]
  97              		.loc 1 96 0
  98 005e 416A     		ldr	r1, [r0, #36]
  99              		.loc 1 114 0
 100 0060 5DF8044B 		ldr	r4, [sp], #4
 101              		.loc 1 96 0
 102 0064 D160     		str	r1, [r2, #12]
 103              		.loc 1 97 0
 104 0066 C16A     		ldr	r1, [r0, #44]
 105 0068 5160     		str	r1, [r2, #4]
 106              		.loc 1 98 0
 107 006a 816A     		ldr	r1, [r0, #40]
 108 006c 1160     		str	r1, [r2]
 109              		.loc 1 100 0
 110 006e 026B     		ldr	r2, [r0, #48]
 111 0070 DA60     		str	r2, [r3, #12]
 112              		.loc 1 101 0
 113 0072 826B     		ldr	r2, [r0, #56]
 114 0074 5A60     		str	r2, [r3, #4]
ARM GAS  /tmp/ccQm9jLs.s 			page 3


 115              		.loc 1 102 0
 116 0076 426B     		ldr	r2, [r0, #52]
 117 0078 1A60     		str	r2, [r3]
 118              		.loc 1 114 0
 119 007a 7047     		bx	lr
 120              		.cfi_endproc
 121              	.LFE63:
 122              		.size	_pal_lld_init, .-_pal_lld_init
 123              		.section	.text._pal_lld_setgroupmode,"ax",%progbits
 124              		.align	2
 125              		.global	_pal_lld_setgroupmode
 126              		.thumb
 127              		.thumb_func
 128              		.type	_pal_lld_setgroupmode, %function
 129              	_pal_lld_setgroupmode:
 130              	.LFB64:
 131              		.loc 1 133 0
 132              		.cfi_startproc
 133              		@ args = 0, pretend = 0, frame = 0
 134              		@ frame_needed = 0, uses_anonymous_args = 0
 135              		@ link register save eliminated.
 136              	.LVL1:
 137              		.loc 1 157 0
 138 0000 032A     		cmp	r2, #3
 139              		.loc 1 133 0
 140 0002 F0B4     		push	{r4, r5, r6, r7}
 141              		.cfi_def_cfa_offset 16
 142              		.cfi_offset 4, -16
 143              		.cfi_offset 5, -12
 144              		.cfi_offset 6, -8
 145              		.cfi_offset 7, -4
 146              		.loc 1 158 0
 147 0004 08BF     		it	eq
 148 0006 0161     		streq	r1, [r0, #16]
 149              		.loc 1 157 0
 150 0008 02D0     		beq	.L4
 151              		.loc 1 159 0
 152 000a 042A     		cmp	r2, #4
 153              		.loc 1 160 0
 154 000c 08BF     		it	eq
 155 000e 4161     		streq	r1, [r0, #20]
 156              	.L4:
 157              		.loc 1 161 0
 158 0010 40F20003 		movw	r3, #:lower16:.LANCHOR0
 159 0014 C0F20003 		movt	r3, #:upper16:.LANCHOR0
 160 0018 9F5C     		ldrb	r7, [r3, r2]	@ zero_extendqisi2
 161              	.LVL2:
 162              		.loc 1 162 0
 163 001a 0023     		movs	r3, #0
 164 001c 1C46     		mov	r4, r3
 165 001e 1A46     		mov	r2, r3
 166              	.LVL3:
 167 0020 1D46     		mov	r5, r3
 168              		.loc 1 161 0
 169 0022 0826     		movs	r6, #8
 170              	.LVL4:
 171              	.L10:
ARM GAS  /tmp/ccQm9jLs.s 			page 4


 172              		.loc 1 168 0
 173 0024 11F0800F 		tst	r1, #128
 174              		.loc 1 164 0
 175 0028 4FEA0212 		lsl	r2, r2, #4
 176              	.LVL5:
 177              		.loc 1 166 0
 178 002c 4FEA0313 		lsl	r3, r3, #4
 179              	.LVL6:
 180              		.loc 1 165 0
 181 0030 4FEA0515 		lsl	r5, r5, #4
 182              	.LVL7:
 183              		.loc 1 167 0
 184 0034 4FEA0414 		lsl	r4, r4, #4
 185              	.LVL8:
 186              		.loc 1 169 0
 187 0038 0CBF     		ite	eq
 188 003a 42F00F02 		orreq	r2, r2, #15
 189              	.LVL9:
 190              		.loc 1 171 0
 191 003e 3B43     		orrne	r3, r3, r7
 192              	.LVL10:
 193              		.loc 1 172 0
 194 0040 11F4004F 		tst	r1, #32768
 195              		.loc 1 173 0
 196 0044 0CBF     		ite	eq
 197 0046 45F00F05 		orreq	r5, r5, #15
 198              	.LVL11:
 199              		.loc 1 175 0
 200 004a 3C43     		orrne	r4, r4, r7
 201              	.LVL12:
 202              		.loc 1 163 0
 203 004c 013E     		subs	r6, r6, #1
 204              	.LVL13:
 205              		.loc 1 176 0
 206 004e 4FEA4101 		lsl	r1, r1, #1
 207              	.LVL14:
 208              		.loc 1 163 0
 209 0052 E7D1     		bne	.L10
 210              		.loc 1 178 0
 211 0054 4168     		ldr	r1, [r0, #4]
 212              	.LVL15:
 213 0056 0D40     		ands	r5, r5, r1
 214              	.LVL16:
 215 0058 2C43     		orrs	r4, r4, r5
 216              	.LVL17:
 217 005a 4460     		str	r4, [r0, #4]
 218              		.loc 1 179 0
 219 005c 0168     		ldr	r1, [r0]
 220              		.loc 1 180 0
 221 005e F0BC     		pop	{r4, r5, r6, r7}
 222              	.LVL18:
 223              		.loc 1 179 0
 224 0060 0A40     		ands	r2, r2, r1
 225              	.LVL19:
 226 0062 1343     		orrs	r3, r3, r2
 227              	.LVL20:
 228 0064 0360     		str	r3, [r0]
ARM GAS  /tmp/ccQm9jLs.s 			page 5


 229              		.loc 1 180 0
 230 0066 7047     		bx	lr
 231              		.cfi_endproc
 232              	.LFE64:
 233              		.size	_pal_lld_setgroupmode, .-_pal_lld_setgroupmode
 234              		.section	.rodata.cfgtab.5983,"a",%progbits
 235              		.align	2
 236              		.set	.LANCHOR0,. + 0
 237              		.type	cfgtab.5983, %object
 238              		.size	cfgtab.5983, 18
 239              	cfgtab.5983:
 240 0000 04       		.byte	4
 241 0001 02       		.byte	2
 242 0002 04       		.byte	4
 243 0003 08       		.byte	8
 244 0004 08       		.byte	8
 245 0005 00       		.byte	0
 246 0006 03       		.byte	3
 247 0007 07       		.byte	7
 248 0008 08       		.byte	8
 249 0009 08       		.byte	8
 250 000a 08       		.byte	8
 251 000b 08       		.byte	8
 252 000c 08       		.byte	8
 253 000d 08       		.byte	8
 254 000e 08       		.byte	8
 255 000f 08       		.byte	8
 256 0010 0B       		.byte	11
 257 0011 0F       		.byte	15
 258 0012 0000     		.text
 259              	.Letext0:
 260              		.file 2 "/usr/include/newlib/machine/_default_types.h"
 261              		.file 3 "/usr/include/newlib/stdint.h"
 262              		.file 4 "../../os/hal/platforms/STM32F1xx/stm32f10x.h"
 263              		.file 5 "../../os/hal/platforms/STM32/GPIOv1/pal_lld.h"
 264              		.file 6 "../../os/ports/common/ARMCMx/CMSIS/include/core_cm3.h"