ARM GAS  /tmp/ccvqX2D7.s 			page 1


   1              		.syntax unified
   2              		.cpu cortex-m3
   3              		.fpu softvfp
   4              		.eabi_attribute 20, 1
   5              		.eabi_attribute 21, 1
   6              		.eabi_attribute 23, 3
   7              		.eabi_attribute 24, 1
   8              		.eabi_attribute 25, 1
   9              		.eabi_attribute 26, 1
  10              		.eabi_attribute 30, 2
  11              		.eabi_attribute 34, 1
  12              		.eabi_attribute 18, 4
  13              		.thumb
  14              		.file	"hal_lld.c"
  15              		.text
  16              	.Ltext0:
  17              		.cfi_sections	.debug_frame
  18              		.section	.text.hal_lld_init,"ax",%progbits
  19              		.align	2
  20              		.global	hal_lld_init
  21              		.thumb
  22              		.thumb_func
  23              		.type	hal_lld_init, %function
  24              	hal_lld_init:
  25              	.LFB64:
  26              		.file 1 "../../os/hal/platforms/STM32F1xx/hal_lld.c"
  27              		.loc 1 99 0
  28              		.cfi_startproc
  29              		@ args = 0, pretend = 0, frame = 0
  30              		@ frame_needed = 0, uses_anonymous_args = 0
  31              		@ link register save eliminated.
  32              		.loc 1 102 0
  33 0000 4FF48053 		mov	r3, #4096
  34              		.loc 1 99 0
  35 0004 F0B4     		push	{r4, r5, r6, r7}
  36              		.cfi_def_cfa_offset 16
  37              		.cfi_offset 4, -16
  38              		.cfi_offset 5, -12
  39              		.cfi_offset 6, -8
  40              		.cfi_offset 7, -4
  41              		.loc 1 102 0
  42 0006 C4F20203 		movt	r3, 16386
  43 000a 0021     		movs	r1, #0
  44 000c 4FF0FF34 		mov	r4, #-1
  45              		.loc 1 106 0
  46 0010 4EF21002 		movw	r2, #57360
  47              		.loc 1 102 0
  48 0014 1869     		ldr	r0, [r3, #16]
  49              		.loc 1 106 0
  50 0016 CEF20002 		movt	r2, 57344
  51              		.loc 1 102 0
  52 001a 1C61     		str	r4, [r3, #16]
  53              		.loc 1 106 0
  54 001c 45F6BF56 		movw	r6, #23999
  55              		.loc 1 102 0
  56 0020 1961     		str	r1, [r3, #16]
  57              		.loc 1 108 0
ARM GAS  /tmp/ccvqX2D7.s 			page 2


  58 0022 0725     		movs	r5, #7
  59              		.loc 1 113 0
  60 0024 4EF6F050 		movw	r0, #60912
  61              		.loc 1 103 0
  62 0028 DF68     		ldr	r7, [r3, #12]
  63              		.loc 1 113 0
  64 002a CEF20000 		movt	r0, 57344
  65              		.loc 1 103 0
  66 002e DC60     		str	r4, [r3, #12]
  67 0030 D960     		str	r1, [r3, #12]
  68              		.loc 1 106 0
  69 0032 5660     		str	r6, [r2, #4]
  70              		.loc 1 107 0
  71 0034 9160     		str	r1, [r2, #8]
  72              		.loc 1 108 0
  73 0036 1560     		str	r5, [r2]
  74              		.loc 1 113 0
  75 0038 C268     		ldr	r2, [r0, #12]
  76              		.loc 1 114 0
  77 003a 4FF48051 		mov	r1, #4096
  78              		.loc 1 113 0
  79 003e 42F08072 		orr	r2, r2, #16777216
  80 0042 C260     		str	r2, [r0, #12]
  81              		.loc 1 114 0
  82 0044 CEF20001 		movt	r1, 57344
  83 0048 0868     		ldr	r0, [r1]
  84              	.LBB4:
  85              	.LBB5:
  86              		.loc 1 52 0
  87 004a 4FF4E042 		mov	r2, #28672
  88              	.LBE5:
  89              	.LBE4:
  90              		.loc 1 114 0
  91 004e 40F00100 		orr	r0, r0, #1
  92 0052 0860     		str	r0, [r1]
  93              		.loc 1 117 0
  94 0054 D969     		ldr	r1, [r3, #28]
  95              	.LBB8:
  96              	.LBB6:
  97              		.loc 1 52 0
  98 0056 C4F20002 		movt	r2, 16384
  99              	.LBE6:
 100              	.LBE8:
 101              		.loc 1 117 0
 102 005a 41F08051 		orr	r1, r1, #268435456
 103 005e D961     		str	r1, [r3, #28]
 104              		.loc 1 118 0
 105 0060 D969     		ldr	r1, [r3, #28]
 106              		.loc 1 131 0
 107 0062 F0BC     		pop	{r4, r5, r6, r7}
 108              		.loc 1 118 0
 109 0064 41F00061 		orr	r1, r1, #134217728
 110 0068 D961     		str	r1, [r3, #28]
 111              	.LBB9:
 112              	.LBB7:
 113              		.loc 1 52 0
 114 006a 1368     		ldr	r3, [r2]
ARM GAS  /tmp/ccvqX2D7.s 			page 3


 115 006c 43F48073 		orr	r3, r3, #256
 116 0070 1360     		str	r3, [r2]
 117              	.LBE7:
 118              	.LBE9:
 119              		.loc 1 131 0
 120 0072 7047     		bx	lr
 121              		.cfi_endproc
 122              	.LFE64:
 123              		.size	hal_lld_init, .-hal_lld_init
 124              		.section	.text.stm32_clock_init,"ax",%progbits
 125              		.align	2
 126              		.global	stm32_clock_init
 127              		.thumb
 128              		.thumb_func
 129              		.type	stm32_clock_init, %function
 130              	stm32_clock_init:
 131              	.LFB65:
 132              		.loc 1 147 0
 133              		.cfi_startproc
 134              		@ args = 0, pretend = 0, frame = 0
 135              		@ frame_needed = 0, uses_anonymous_args = 0
 136              		@ link register save eliminated.
 137              		.loc 1 152 0
 138 0000 4FF48053 		mov	r3, #4096
 139 0004 C4F20203 		movt	r3, 16386
 140 0008 1A68     		ldr	r2, [r3]
 141              		.loc 1 153 0
 142 000a 1946     		mov	r1, r3
 143              		.loc 1 152 0
 144 000c 42F00102 		orr	r2, r2, #1
 145 0010 1A60     		str	r2, [r3]
 146              	.L4:
 147              		.loc 1 153 0 discriminator 1
 148 0012 0A68     		ldr	r2, [r1]
 149 0014 4FF48053 		mov	r3, #4096
 150 0018 9207     		lsls	r2, r2, #30
 151 001a C4F20203 		movt	r3, 16386
 152 001e F8D5     		bpl	.L4
 153              		.loc 1 155 0
 154 0020 1968     		ldr	r1, [r3]
 155              		.loc 1 156 0
 156 0022 0022     		movs	r2, #0
 157              		.loc 1 155 0
 158 0024 01F0F901 		and	r1, r1, #249
 159 0028 1960     		str	r1, [r3]
 160              		.loc 1 157 0
 161 002a 1946     		mov	r1, r3
 162              		.loc 1 156 0
 163 002c 5A60     		str	r2, [r3, #4]
 164              	.L6:
 165              		.loc 1 157 0 discriminator 1
 166 002e 4A68     		ldr	r2, [r1, #4]
 167 0030 4FF48053 		mov	r3, #4096
 168 0034 12F00C0F 		tst	r2, #12
 169 0038 C4F20203 		movt	r3, 16386
 170 003c F7D1     		bne	.L6
 171              		.loc 1 166 0
ARM GAS  /tmp/ccvqX2D7.s 			page 4


 172 003e 1A68     		ldr	r2, [r3]
 173              		.loc 1 167 0
 174 0040 1946     		mov	r1, r3
 175              		.loc 1 166 0
 176 0042 42F48032 		orr	r2, r2, #65536
 177 0046 1A60     		str	r2, [r3]
 178              	.L8:
 179              		.loc 1 167 0 discriminator 1
 180 0048 0A68     		ldr	r2, [r1]
 181 004a 4FF48053 		mov	r3, #4096
 182 004e 9003     		lsls	r0, r2, #14
 183 0050 C4F20203 		movt	r3, 16386
 184 0054 F8D5     		bpl	.L8
 185              		.loc 1 180 0
 186 0056 5A68     		ldr	r2, [r3, #4]
 187              		.loc 1 182 0
 188 0058 1946     		mov	r1, r3
 189              		.loc 1 180 0
 190 005a 42F4A022 		orr	r2, r2, #327680
 191 005e 5A60     		str	r2, [r3, #4]
 192              		.loc 1 181 0
 193 0060 1A68     		ldr	r2, [r3]
 194 0062 42F08072 		orr	r2, r2, #16777216
 195 0066 1A60     		str	r2, [r3]
 196              	.L10:
 197              		.loc 1 182 0 discriminator 1
 198 0068 0A68     		ldr	r2, [r1]
 199 006a 4FF48053 		mov	r3, #4096
 200 006e 9201     		lsls	r2, r2, #6
 201 0070 C4F20203 		movt	r3, 16386
 202 0074 F8D5     		bpl	.L10
 203              		.loc 1 198 0
 204 0076 4FF40052 		mov	r2, #8192
 205 007a C4F20202 		movt	r2, 16386
 206 007e 1021     		movs	r1, #16
 207              		.loc 1 188 0
 208 0080 4FF4A020 		mov	r0, #327680
 209 0084 5860     		str	r0, [r3, #4]
 210              		.loc 1 198 0
 211 0086 1160     		str	r1, [r2]
 212              		.loc 1 203 0
 213 0088 5968     		ldr	r1, [r3, #4]
 214              		.loc 1 204 0
 215 008a 1A46     		mov	r2, r3
 216              		.loc 1 203 0
 217 008c 41F00201 		orr	r1, r1, #2
 218 0090 5960     		str	r1, [r3, #4]
 219              	.L12:
 220              		.loc 1 204 0 discriminator 1
 221 0092 5368     		ldr	r3, [r2, #4]
 222 0094 03F00C03 		and	r3, r3, #12
 223 0098 082B     		cmp	r3, #8
 224 009a FAD1     		bne	.L12
 225              		.loc 1 212 0
 226 009c 7047     		bx	lr
 227              		.cfi_endproc
 228              	.LFE65:
ARM GAS  /tmp/ccvqX2D7.s 			page 5


 229              		.size	stm32_clock_init, .-stm32_clock_init
 230 009e 00BF     		.text
 231              	.Letext0:
 232              		.file 2 "/usr/include/newlib/machine/_default_types.h"
 233              		.file 3 "/usr/include/newlib/stdint.h"
 234              		.file 4 "../../os/ports/common/ARMCMx/nvic.h"
 235              		.file 5 "../../os/ports/common/ARMCMx/CMSIS/include/core_cm3.h"
 236              		.file 6 "../../os/hal/platforms/STM32F1xx/stm32f10x.h"