ARM GAS  /tmp/ccGcML5g.s 			page 1


   1              		.syntax unified
   2              		.cpu cortex-m3
   3              		.fpu softvfp
   4              		.eabi_attribute 20, 1
   5              		.eabi_attribute 21, 1
   6              		.eabi_attribute 23, 3
   7              		.eabi_attribute 24, 1
   8              		.eabi_attribute 25, 1
   9              		.eabi_attribute 26, 1
  10              		.eabi_attribute 30, 2
  11              		.eabi_attribute 34, 1
  12              		.eabi_attribute 18, 4
  13              		.thumb
  14              		.file	"serial_lld.c"
  15              		.text
  16              	.Ltext0:
  17              		.cfi_sections	.debug_frame
  18              		.section	.text.notify1,"ax",%progbits
  19              		.align	2
  20              		.thumb
  21              		.thumb_func
  22              		.type	notify1, %function
  23              	notify1:
  24              	.LFB67:
  25              		.file 1 "../../os/hal/platforms/STM32/USARTv1/serial_lld.c"
  26              		.loc 1 203 0
  27              		.cfi_startproc
  28              		@ args = 0, pretend = 0, frame = 0
  29              		@ frame_needed = 0, uses_anonymous_args = 0
  30              		@ link register save eliminated.
  31              	.LVL0:
  32              		.loc 1 206 0
  33 0000 4FF46053 		mov	r3, #14336
  34 0004 C4F20103 		movt	r3, 16385
  35 0008 9A89     		ldrh	r2, [r3, #12]
  36 000a 92B2     		uxth	r2, r2
  37 000c 42F08002 		orr	r2, r2, #128
  38 0010 9A81     		strh	r2, [r3, #12]	@ movhi
  39 0012 7047     		bx	lr
  40              		.cfi_endproc
  41              	.LFE67:
  42              		.size	notify1, .-notify1
  43              		.section	.text.VectorD4,"ax",%progbits
  44              		.align	2
  45              		.global	VectorD4
  46              		.thumb
  47              		.thumb_func
  48              		.type	VectorD4, %function
  49              	VectorD4:
  50              	.LFB68:
  51              		.loc 1 263 0
  52              		.cfi_startproc
  53              		@ args = 0, pretend = 0, frame = 0
  54              		@ frame_needed = 0, uses_anonymous_args = 0
  55              	.LVL1:
  56              	.LBB28:
  57              	.LBB29:
ARM GAS  /tmp/ccGcML5g.s 			page 2


  58              		.loc 1 155 0
  59 0000 40F20003 		movw	r3, #:lower16:.LANCHOR0
  60 0004 C0F20003 		movt	r3, #:upper16:.LANCHOR0
  61              	.LBE29:
  62              	.LBE28:
  63              		.loc 1 263 0
  64 0008 70B5     		push	{r4, r5, r6, lr}
  65              		.cfi_def_cfa_offset 16
  66              		.cfi_offset 4, -16
  67              		.cfi_offset 5, -12
  68              		.cfi_offset 6, -8
  69              		.cfi_offset 14, -4
  70              	.LBB43:
  71              	.LBB41:
  72              		.loc 1 155 0
  73 000a D3F8D450 		ldr	r5, [r3, #212]
  74              	.LVL2:
  75              		.loc 1 156 0
  76 000e AE89     		ldrh	r6, [r5, #12]
  77              		.loc 1 157 0
  78 0010 2C88     		ldrh	r4, [r5]
  79              		.loc 1 156 0
  80 0012 B6B2     		uxth	r6, r6
  81              	.LVL3:
  82              		.loc 1 157 0
  83 0014 A4B2     		uxth	r4, r4
  84              	.LVL4:
  85              		.loc 1 160 0
  86 0016 E005     		lsls	r0, r4, #23
  87 0018 47D4     		bmi	.L47
  88              	.L3:
  89              	.LBB30:
  90              		.loc 1 168 0
  91 001a 2023     		movs	r3, #32
  92              	@ 168 "../../os/hal/platforms/STM32/USARTv1/serial_lld.c" 1
  93 001c 83F31188 		msr     BASEPRI, r3
  94              	@ 0 "" 2
  95              		.thumb
  96              	.LBE30:
  97              		.loc 1 169 0
  98 0020 A106     		lsls	r1, r4, #26
  99 0022 24D5     		bpl	.L4
 100 0024 0BE0     		b	.L10
 101              	.LVL5:
 102              	.L5:
 103              		.loc 1 173 0
 104 0026 A988     		ldrh	r1, [r5, #4]
 105 0028 40F20000 		movw	r0, #:lower16:.LANCHOR0
 106 002c C0F20000 		movt	r0, #:upper16:.LANCHOR0
 107 0030 C9B2     		uxtb	r1, r1
 108 0032 FFF7FEFF 		bl	sdIncomingDataI
 109              	.LVL6:
 110              		.loc 1 174 0
 111 0036 2C88     		ldrh	r4, [r5]
 112 0038 A4B2     		uxth	r4, r4
 113              	.LVL7:
 114              		.loc 1 169 0
ARM GAS  /tmp/ccGcML5g.s 			page 3


 115 003a A006     		lsls	r0, r4, #26
 116 003c 17D5     		bpl	.L4
 117              	.LVL8:
 118              	.L10:
 119              		.loc 1 171 0
 120 003e 2207     		lsls	r2, r4, #28
 121 0040 F1D0     		beq	.L5
 122              	.LVL9:
 123              	.LBB31:
 124              	.LBB32:
 125              		.loc 1 136 0
 126 0042 14F0080F 		tst	r4, #8
 127 0046 14BF     		ite	ne
 128 0048 8021     		movne	r1, #128
 129 004a 0021     		moveq	r1, #0
 130              	.LVL10:
 131              		.loc 1 140 0
 132 004c 14F0010F 		tst	r4, #1
 133              		.loc 1 141 0
 134 0050 18BF     		it	ne
 135 0052 41F02001 		orrne	r1, r1, #32
 136              	.LVL11:
 137              		.loc 1 142 0
 138 0056 A307     		lsls	r3, r4, #30
 139              		.loc 1 143 0
 140 0058 48BF     		it	mi
 141 005a 41F04001 		orrmi	r1, r1, #64
 142              	.LVL12:
 143              		.loc 1 144 0
 144 005e 6407     		lsls	r4, r4, #29
 145              	.LVL13:
 146              		.loc 1 146 0
 147 0060 2648     		ldr	r0, .L50
 148              		.loc 1 145 0
 149 0062 48BF     		it	mi
 150 0064 41F48071 		orrmi	r1, r1, #256
 151              	.LVL14:
 152              		.loc 1 146 0
 153 0068 FFF7FEFF 		bl	chEvtBroadcastFlagsI
 154              	.LVL15:
 155 006c DBE7     		b	.L5
 156              	.LVL16:
 157              	.L4:
 158              	.LBE32:
 159              	.LBE31:
 160              	.LBB33:
 161              		.loc 1 176 0
 162 006e 0023     		movs	r3, #0
 163              	@ 176 "../../os/hal/platforms/STM32/USARTv1/serial_lld.c" 1
 164 0070 83F31188 		msr     BASEPRI, r3
 165              	@ 0 "" 2
 166              		.thumb
 167              	.LBE33:
 168              		.loc 1 179 0
 169 0074 3106     		lsls	r1, r6, #24
 170 0076 01D5     		bpl	.L11
 171 0078 2206     		lsls	r2, r4, #24
ARM GAS  /tmp/ccGcML5g.s 			page 4


 172 007a 25D4     		bmi	.L48
 173              	.L11:
 174              		.loc 1 193 0
 175 007c 6306     		lsls	r3, r4, #25
 176 007e 10D5     		bpl	.L14
 177              	.LBB34:
 178              		.loc 1 194 0
 179 0080 2023     		movs	r3, #32
 180              	@ 194 "../../os/hal/platforms/STM32/USARTv1/serial_lld.c" 1
 181 0082 83F31188 		msr     BASEPRI, r3
 182              	@ 0 "" 2
 183              		.thumb
 184              	.LBE34:
 185              		.loc 1 195 0
 186 0086 1D48     		ldr	r0, .L50
 187 0088 1021     		movs	r1, #16
 188 008a FFF7FEFF 		bl	chEvtBroadcastFlagsI
 189              	.LVL17:
 190              	.LBB35:
 191              		.loc 1 196 0
 192 008e 0023     		movs	r3, #0
 193              	@ 196 "../../os/hal/platforms/STM32/USARTv1/serial_lld.c" 1
 194 0090 83F31188 		msr     BASEPRI, r3
 195              	@ 0 "" 2
 196              		.thumb
 197              	.LBE35:
 198              		.loc 1 197 0
 199 0094 4FF63F73 		movw	r3, #65343
 200 0098 3340     		ands	r3, r3, r6
 201              		.loc 1 198 0
 202 009a 4FF6BF72 		movw	r2, #65471
 203              		.loc 1 197 0
 204 009e AB81     		strh	r3, [r5, #12]	@ movhi
 205              		.loc 1 198 0
 206 00a0 2A80     		strh	r2, [r5]	@ movhi
 207              	.L14:
 208              	.LBE41:
 209              	.LBE43:
 210              		.loc 1 270 0
 211 00a2 BDE87040 		pop	{r4, r5, r6, lr}
 212              	.LVL18:
 213              		.loc 1 269 0
 214 00a6 FFF7FEBF 		b	_port_irq_epilogue
 215              	.LVL19:
 216              	.L47:
 217              	.LBB44:
 218              	.LBB42:
 219              	.LBB36:
 220              		.loc 1 161 0
 221 00aa 2023     		movs	r3, #32
 222              	@ 161 "../../os/hal/platforms/STM32/USARTv1/serial_lld.c" 1
 223 00ac 83F31188 		msr     BASEPRI, r3
 224              	@ 0 "" 2
 225              		.thumb
 226              	.LBE36:
 227              		.loc 1 162 0
 228 00b0 1248     		ldr	r0, .L50
ARM GAS  /tmp/ccGcML5g.s 			page 5


 229 00b2 4FF40071 		mov	r1, #512
 230 00b6 FFF7FEFF 		bl	chEvtBroadcastFlagsI
 231              	.LVL20:
 232              	.LBB37:
 233              		.loc 1 163 0
 234 00ba 0023     		movs	r3, #0
 235              	@ 163 "../../os/hal/platforms/STM32/USARTv1/serial_lld.c" 1
 236 00bc 83F31188 		msr     BASEPRI, r3
 237              	@ 0 "" 2
 238              		.thumb
 239              	.LBE37:
 240              		.loc 1 164 0
 241 00c0 4FF6FF63 		movw	r3, #65279
 242 00c4 2B80     		strh	r3, [r5]	@ movhi
 243 00c6 A8E7     		b	.L3
 244              	.LVL21:
 245              	.L48:
 246              	.LBB38:
 247              	.LBB39:
 248              		.loc 1 181 0
 249 00c8 2023     		movs	r3, #32
 250              	@ 181 "../../os/hal/platforms/STM32/USARTv1/serial_lld.c" 1
 251 00ca 83F31188 		msr     BASEPRI, r3
 252              	@ 0 "" 2
 253              		.thumb
 254              	.LBE39:
 255              		.loc 1 182 0
 256 00ce 0C48     		ldr	r0, .L50+4
 257 00d0 FFF7FEFF 		bl	chOQGetI
 258              	.LVL22:
 259              		.loc 1 183 0
 260 00d4 0028     		cmp	r0, #0
 261              		.loc 1 188 0
 262 00d6 A4BF     		itt	ge
 263 00d8 80B2     		uxthge	r0, r0
 264              	.LVL23:
 265 00da A880     		strhge	r0, [r5, #4]	@ movhi
 266              		.loc 1 183 0
 267 00dc 03DB     		blt	.L49
 268              	.L13:
 269              	.LBB40:
 270              		.loc 1 189 0
 271 00de 0023     		movs	r3, #0
 272              	@ 189 "../../os/hal/platforms/STM32/USARTv1/serial_lld.c" 1
 273 00e0 83F31188 		msr     BASEPRI, r3
 274              	@ 0 "" 2
 275              		.thumb
 276 00e4 CAE7     		b	.L11
 277              	.L49:
 278              	.LBE40:
 279              		.loc 1 184 0
 280 00e6 0548     		ldr	r0, .L50
 281 00e8 0821     		movs	r1, #8
 282 00ea FFF7FEFF 		bl	chEvtBroadcastFlagsI
 283              	.LVL24:
 284              		.loc 1 185 0
 285 00ee 26F0C003 		bic	r3, r6, #192
ARM GAS  /tmp/ccGcML5g.s 			page 6


 286 00f2 43F04003 		orr	r3, r3, #64
 287 00f6 AB81     		strh	r3, [r5, #12]	@ movhi
 288 00f8 F1E7     		b	.L13
 289              	.L51:
 290 00fa 00BF     		.align	2
 291              	.L50:
 292 00fc 04000000 		.word	.LANCHOR0+4
 293 0100 30000000 		.word	.LANCHOR0+48
 294              	.LBE38:
 295              	.LBE42:
 296              	.LBE44:
 297              		.cfi_endproc
 298              	.LFE68:
 299              		.size	VectorD4, .-VectorD4
 300              		.section	.text.sd_lld_init,"ax",%progbits
 301              		.align	2
 302              		.global	sd_lld_init
 303              		.thumb
 304              		.thumb_func
 305              		.type	sd_lld_init, %function
 306              	sd_lld_init:
 307              	.LFB69:
 308              		.loc 1 377 0
 309              		.cfi_startproc
 310              		@ args = 0, pretend = 0, frame = 0
 311              		@ frame_needed = 0, uses_anonymous_args = 0
 312 0000 10B5     		push	{r4, lr}
 313              		.cfi_def_cfa_offset 8
 314              		.cfi_offset 4, -8
 315              		.cfi_offset 14, -4
 316              		.loc 1 380 0
 317 0002 40F20004 		movw	r4, #:lower16:.LANCHOR0
 318 0006 C0F20004 		movt	r4, #:upper16:.LANCHOR0
 319 000a 40F20002 		movw	r2, #:lower16:notify1
 320 000e 2046     		mov	r0, r4
 321 0010 C0F20002 		movt	r2, #:upper16:notify1
 322 0014 0021     		movs	r1, #0
 323 0016 FFF7FEFF 		bl	sdObjectInit
 324              	.LVL25:
 325              		.loc 1 381 0
 326 001a 4FF46053 		mov	r3, #14336
 327 001e C4F20103 		movt	r3, 16385
 328 0022 C4F8D430 		str	r3, [r4, #212]
 329 0026 10BD     		pop	{r4, pc}
 330              		.cfi_endproc
 331              	.LFE69:
 332              		.size	sd_lld_init, .-sd_lld_init
 333              		.section	.text.sd_lld_start,"ax",%progbits
 334              		.align	2
 335              		.global	sd_lld_start
 336              		.thumb
 337              		.thumb_func
 338              		.type	sd_lld_start, %function
 339              	sd_lld_start:
 340              	.LFB70:
 341              		.loc 1 420 0
 342              		.cfi_startproc
ARM GAS  /tmp/ccGcML5g.s 			page 7


 343              		@ args = 0, pretend = 0, frame = 0
 344              		@ frame_needed = 0, uses_anonymous_args = 0
 345              	.LVL26:
 346 0000 38B5     		push	{r3, r4, r5, lr}
 347              		.cfi_def_cfa_offset 16
 348              		.cfi_offset 3, -16
 349              		.cfi_offset 4, -12
 350              		.cfi_offset 5, -8
 351              		.cfi_offset 14, -4
 352              		.loc 1 423 0
 353 0002 40F20004 		movw	r4, #:lower16:.LANCHOR1
 354              		.loc 1 425 0
 355 0006 037A     		ldrb	r3, [r0, #8]	@ zero_extendqisi2
 356              		.loc 1 423 0
 357 0008 C0F20004 		movt	r4, #:upper16:.LANCHOR1
 358 000c 0029     		cmp	r1, #0
 359 000e 18BF     		it	ne
 360 0010 0C46     		movne	r4, r1
 361              	.LVL27:
 362              		.loc 1 425 0
 363 0012 012B     		cmp	r3, #1
 364              		.loc 1 420 0
 365 0014 0546     		mov	r5, r0
 366              		.loc 1 425 0
 367 0016 20D0     		beq	.L59
 368              	.LVL28:
 369              	.L55:
 370              	.LBB45:
 371              	.LBB46:
 372              		.loc 1 101 0
 373 0018 2168     		ldr	r1, [r4]
 374 001a 4FF45852 		mov	r2, #13824
 375 001e C0F26E12 		movt	r2, 366
 376              	.LBE46:
 377              	.LBE45:
 378              		.loc 1 420 0
 379 0022 D5F8D430 		ldr	r3, [r5, #212]
 380              	.LVL29:
 381              	.LBB48:
 382              	.LBB47:
 383              		.loc 1 101 0
 384 0026 B2FBF1F2 		udiv	r2, r2, r1
 385 002a 92B2     		uxth	r2, r2
 386 002c 1A81     		strh	r2, [r3, #8]	@ movhi
 387              		.loc 1 108 0
 388 002e A288     		ldrh	r2, [r4, #4]
 389              		.loc 1 106 0
 390 0030 E188     		ldrh	r1, [r4, #6]
 391              		.loc 1 107 0
 392 0032 2089     		ldrh	r0, [r4, #8]
 393              		.loc 1 108 0
 394 0034 42F40452 		orr	r2, r2, #8448
 395              		.loc 1 106 0
 396 0038 41F04004 		orr	r4, r1, #64
 397              	.LVL30:
 398              		.loc 1 108 0
 399 003c 42F02C02 		orr	r2, r2, #44
ARM GAS  /tmp/ccGcML5g.s 			page 8


 400              		.loc 1 107 0
 401 0040 40F00100 		orr	r0, r0, #1
 402              		.loc 1 108 0
 403 0044 92B2     		uxth	r2, r2
 404              		.loc 1 106 0
 405 0046 A4B2     		uxth	r4, r4
 406              		.loc 1 107 0
 407 0048 80B2     		uxth	r0, r0
 408              		.loc 1 111 0
 409 004a 0021     		movs	r1, #0
 410              		.loc 1 106 0
 411 004c 1C82     		strh	r4, [r3, #16]	@ movhi
 412              		.loc 1 107 0
 413 004e 9882     		strh	r0, [r3, #20]	@ movhi
 414              		.loc 1 108 0
 415 0050 9A81     		strh	r2, [r3, #12]	@ movhi
 416              		.loc 1 111 0
 417 0052 1980     		strh	r1, [r3]	@ movhi
 418              		.loc 1 112 0
 419 0054 1A88     		ldrh	r2, [r3]
 420              		.loc 1 113 0
 421 0056 9B88     		ldrh	r3, [r3, #4]
 422              	.LVL31:
 423 0058 38BD     		pop	{r3, r4, r5, pc}
 424              	.LVL32:
 425              	.L59:
 426              	.LBE47:
 427              	.LBE48:
 428              		.loc 1 427 0
 429 005a 40F20003 		movw	r3, #:lower16:.LANCHOR0
 430 005e C0F20003 		movt	r3, #:upper16:.LANCHOR0
 431 0062 9842     		cmp	r0, r3
 432 0064 D8D1     		bne	.L55
 433              		.loc 1 428 0
 434 0066 4FF48053 		mov	r3, #4096
 435 006a C4F20203 		movt	r3, 16386
 436 006e 9A69     		ldr	r2, [r3, #24]
 437              		.loc 1 429 0
 438 0070 2520     		movs	r0, #37
 439              	.LVL33:
 440              		.loc 1 428 0
 441 0072 42F48042 		orr	r2, r2, #16384
 442 0076 9A61     		str	r2, [r3, #24]
 443              		.loc 1 429 0
 444 0078 C021     		movs	r1, #192
 445 007a FFF7FEFF 		bl	nvicEnableVector
 446              	.LVL34:
 447 007e CBE7     		b	.L55
 448              		.cfi_endproc
 449              	.LFE70:
 450              		.size	sd_lld_start, .-sd_lld_start
 451              		.section	.text.sd_lld_stop,"ax",%progbits
 452              		.align	2
 453              		.global	sd_lld_stop
 454              		.thumb
 455              		.thumb_func
 456              		.type	sd_lld_stop, %function
ARM GAS  /tmp/ccGcML5g.s 			page 9


 457              	sd_lld_stop:
 458              	.LFB71:
 459              		.loc 1 481 0
 460              		.cfi_startproc
 461              		@ args = 0, pretend = 0, frame = 0
 462              		@ frame_needed = 0, uses_anonymous_args = 0
 463              		@ link register save eliminated.
 464              	.LVL35:
 465              		.loc 1 483 0
 466 0000 037A     		ldrb	r3, [r0, #8]	@ zero_extendqisi2
 467 0002 022B     		cmp	r3, #2
 468 0004 00D0     		beq	.L64
 469              	.L60:
 470 0006 7047     		bx	lr
 471              	.L64:
 472              		.loc 1 486 0
 473 0008 40F20003 		movw	r3, #:lower16:.LANCHOR0
 474              		.loc 1 484 0
 475 000c D0F8D420 		ldr	r2, [r0, #212]
 476              	.LVL36:
 477              		.loc 1 486 0
 478 0010 C0F20003 		movt	r3, #:upper16:.LANCHOR0
 479              	.LBB49:
 480              	.LBB50:
 481              		.loc 1 124 0
 482 0014 0021     		movs	r1, #0
 483              	.LBE50:
 484              	.LBE49:
 485              		.loc 1 486 0
 486 0016 9842     		cmp	r0, r3
 487              	.LBB52:
 488              	.LBB51:
 489              		.loc 1 124 0
 490 0018 9181     		strh	r1, [r2, #12]	@ movhi
 491              		.loc 1 125 0
 492 001a 1182     		strh	r1, [r2, #16]	@ movhi
 493              		.loc 1 126 0
 494 001c 9182     		strh	r1, [r2, #20]	@ movhi
 495              	.LBE51:
 496              	.LBE52:
 497              		.loc 1 486 0
 498 001e F2D1     		bne	.L60
 499              		.loc 1 487 0
 500 0020 4FF48053 		mov	r3, #4096
 501 0024 C4F20203 		movt	r3, 16386
 502 0028 9A69     		ldr	r2, [r3, #24]
 503              	.LVL37:
 504              		.loc 1 488 0
 505 002a 2520     		movs	r0, #37
 506              	.LVL38:
 507              		.loc 1 487 0
 508 002c 22F48042 		bic	r2, r2, #16384
 509 0030 9A61     		str	r2, [r3, #24]
 510              		.loc 1 488 0
 511 0032 FFF7FEBF 		b	nvicDisableVector
 512              	.LVL39:
 513              		.cfi_endproc
ARM GAS  /tmp/ccGcML5g.s 			page 10


 514              	.LFE71:
 515              		.size	sd_lld_stop, .-sd_lld_stop
 516              		.global	SD1
 517 0036 00BF     		.section	.rodata.default_config,"a",%progbits
 518              		.align	2
 519              		.set	.LANCHOR1,. + 0
 520              		.type	default_config, %object
 521              		.size	default_config, 12
 522              	default_config:
 523 0000 00960000 		.word	38400
 524 0004 0000     		.short	0
 525 0006 0040     		.short	16384
 526 0008 0000     		.short	0
 527 000a 0000     		.space	2
 528              		.section	.bss.SD1,"aw",%nobits
 529              		.align	2
 530              		.set	.LANCHOR0,. + 0
 531              		.type	SD1, %object
 532              		.size	SD1, 216
 533              	SD1:
 534 0000 00000000 		.space	216
 534      00000000 
 534      00000000 
 534      00000000 
 534      00000000 
 535              		.text
 536              	.Letext0:
 537              		.file 2 "/usr/lib/gcc/arm-none-eabi/4.8.2/include/stddef.h"
 538              		.file 3 "/usr/include/newlib/machine/_default_types.h"
 539              		.file 4 "/usr/include/newlib/stdint.h"
 540              		.file 5 "../../os/ports/GCC/ARMCMx/chtypes.h"
 541              		.file 6 "../../os/kernel/include/chlists.h"
 542              		.file 7 "../../os/kernel/include/chthreads.h"
 543              		.file 8 "../../os/ports/GCC/ARMCMx/chcore_v7m.h"
 544              		.file 9 "../../os/kernel/include/chmtx.h"
 545              		.file 10 "../../os/kernel/include/chevents.h"
 546              		.file 11 "../../os/kernel/include/chqueues.h"
 547              		.file 12 "../../os/hal/platforms/STM32F1xx/stm32f10x.h"
 548              		.file 13 "../../os/hal/include/serial.h"
 549              		.file 14 "../../os/hal/platforms/STM32/USARTv1/serial_lld.h"
 550              		.file 15 "../../os/ports/common/ARMCMx/nvic.h"
 551              		.file 16 "../../os/ports/common/ARMCMx/CMSIS/include/core_cm3.h"