ARM GAS  /tmp/ccGcML5g.s 			page 1


   1              		.syntax unified
   2              		.cpu cortex-m3
   3              		.fpu softvfp
   4              		.eabi_attribute 20, 1
   5              		.eabi_attribute 21, 1
   6              		.eabi_attribute 23, 3
   7              		.eabi_attribute 24, 1
   8              		.eabi_attribute 25, 1
   9              		.eabi_attribute 26, 1
  10              		.eabi_attribute 30, 2
  11              		.eabi_attribute 34, 1
  12              		.eabi_attribute 18, 4
  13              		.thumb
  14              		.file	"serial_lld.c"
  15              		.text
  16              	.Ltext0:
  17              		.cfi_sections	.debug_frame
  18              		.section	.text.notify1,"ax",%progbits
  19              		.align	2
  20              		.thumb
  21              		.thumb_func
  22              		.type	notify1, %function
  23              	notify1:
  24              	.LFB67:
  25              		.file 1 "../../os/hal/platforms/STM32/USARTv1/serial_lld.c"
  26              		.loc 1 203 0
  27              		.cfi_startproc
  28              		@ args = 0, pretend = 0, frame = 0
  29              		@ frame_needed = 0, uses_anonymous_args = 0
  30              		@ link register save eliminated.
  31              	.LVL0:
  32              		.loc 1 206 0
  33 0000 4FF46053 		mov	r3, #14336
  34 0004 C4F20103 		movt	r3, 16385
  35 0008 9A89     		ldrh	r2, [r3, #12]
  36 000a 92B2     		uxth	r2, r2
  37 000c 42F08002 		orr	r2, r2, #128
  38 0010 9A81     		strh	r2, [r3, #12]	@ movhi
  39 0012 7047     		bx	lr
  40              		.cfi_endproc
  41              	.LFE67:
  42              		.size	notify1, .-notify1
  43              		.section	.text.VectorD4,"ax",%progbits
  44              		.align	2
  45              		.global	VectorD4
  46              		.thumb
  47              		.thumb_func
  48              		.type	VectorD4, %function
  49              	VectorD4:
  50              	.LFB68:
  51              		.loc 1 263 0
  52              		.cfi_startproc
  53              		@ args = 0, pretend = 0, frame = 0
  54              		@ frame_needed = 0, uses_anonymous_args = 0
  55              	.LVL1:
  56              	.LBB28:
  57              	.LBB29:
ARM GAS  /tmp/ccGcML5g.s 			page 2


  58              		.loc 1 155 0
  59 0000 40F20003 		movw	r3, #:lower16:.LANCHOR0
  60 0004 C0F20003 		movt	r3, #:upper16:.LANCHOR0
  61              	.LBE29:
  62              	.LBE28:
  63              		.loc 1 263 0
  64 0008 70B5     		push	{r4, r5, r6, lr}
  65              		.cfi_def_cfa_offset 16
  66              		.cfi_offset 4, -16
  67              		.cfi_offset 5, -12
  68              		.cfi_offset 6, -8
  69              		.cfi_offset 14, -4
  70              	.LBB43:
  71              	.LBB41:
  72              		.loc 1 155 0
  73 000a D3F8D450 		ldr	r5, [r3, #212]
  74              	.LVL2:
  75              		.loc 1 156 0
  76 000e AE89     		ldrh	r6, [r5, #12]
  77              		.loc 1 157 0
  78 0010 2C88     		ldrh	r4, [r5]
  79              		.loc 1 156 0
  80 0012 B6B2     		uxth	r6, r6
  81              	.LVL3:
  82              		.loc 1 157 0
  83 0014 A4B2     		uxth	r4, r4
  84              	.LVL4:
  85              		.loc 1 160 0
  86 0016 E005     		lsls	r0, r4, #23
  87 0018 47D4     		bmi	.L47
  88              	.L3:
  89              	.LBB30:
  90              		.loc 1 168 0
  91 001a 2023     		movs	r3, #32
  92              	@ 168 "../../os/hal/platforms/STM32/USARTv1/serial_lld.c" 1
  93 001c 83F31188 		msr     BASEPRI, r3
  94              	@ 0 "" 2
  95              		.thumb
  96              	.LBE30:
  97              		.loc 1 169 0
  98 0020 A106     		lsls	r1, r4, #26
  99 0022 24D5     		bpl	.L4
 100 0024 0BE0     		b	.L10
 101              	.LVL5:
 102              	.L5:
 103              		.loc 1 173 0
 104 0026 A988     		ldrh	r1, [r5, #4]
 105 0028 40F20000 		movw	r0, #:lower16:.LANCHOR0
 106 002c C0F20000 		movt	r0, #:upper16:.LANCHOR0
 107 0030 C9B2     		uxtb	r1, r1
 108 0032 FFF7FEFF 		bl	sdIncomingDataI
 109              	.LVL6:
 110              		.loc 1 174 0
 111 0036 2C88     		ldrh	r4, [r5]
 112 0038 A4B2     		uxth	r4, r4
 113              	.LVL7:
 114              		.loc 1 169 0
ARM GAS  /tmp/ccGcML5g.s 			page 3


 115 003a A006     		lsls	r0, r4, #26
 116 003c 17D5     		bpl	.L4
 117              	.LVL8:
 118              	.L10:
 119              		.loc 1 171 0
 120 003e 2207     		lsls	r2, r4, #28
 121 0040 F1D0     		beq	.L5
 122              	.LVL9:
 123              	.LBB31:
 124              	.LBB32:
 125              		.loc 1 136 0
 126 0042 14F0080F 		tst	r4, #8
 127 0046 14BF     		ite	ne
 128 0048 8021     		movne	r1, #128
 129 004a 0021     		moveq	r1, #0
 130              	.LVL10:
 131              		.loc 1 140 0
 132 004c 14F0010F 		tst	r4, #1
 133              		.loc 1 141 0
 134 0050 18BF     		it	ne
 135 0052 41F02001 		orrne	r1, r1, #32
 136              	.LVL11:
 137              		.loc 1 142 0
 138 0056 A307     		lsls	r3, r4, #30
 139              		.loc 1 143 0
 140 0058 48BF     		it	mi
 141 005a 41F04001 		orrmi	r1, r1, #64
 142              	.LVL12:
 143              		.loc 1 144 0
 144 005e 6407     		lsls	r4, r4, #29
 145              	.LVL13:
 146              		.loc 1 146 0
 147 0060 2648     		ldr	r0, .L50
 148              		.loc 1 145 0
 149 0062 48BF     		it	mi
 150 0064 41F48071 		orrmi	r1, r1, #256
 151              	.LVL14:
 152              		.loc 1 146 0
 153 0068 FFF7FEFF 		bl	chEvtBroadcastFlagsI
 154              	.LVL15:
 155 006c DBE7     		b	.L5
 156              	.LVL16:
 157              	.L4:
 158              	.LBE32:
 159              	.LBE31:
 160              	.LBB33:
 161              		.loc 1 176 0
 162 006e 0023     		movs	r3, #0
 163              	@ 176 "../../os/hal/platforms/STM32/USARTv1/serial_lld.c" 1
 164 0070 83F31188 		msr     BASEPRI, r3
 165              	@ 0 "" 2
 166              		.thumb
 167              	.LBE33:
 168              		.loc 1 179 0
 169 0074 3106     		lsls	r1, r6, #24
 170 0076 01D5     		bpl	.L11
 171 0078 2206     		lsls	r2, r4, #24
ARM GAS  /tmp/ccGcML5g.s 			page 4


 172 007a 25D4     		bmi	.L48
 173              	.L11:
 174              		.loc 1 193 0
 175 007c 6306     		lsls	r3, r4, #25
 176 007e 10D5     		bpl	.L14
 177              	.LBB34:
 178              		.loc 1 194 0
 179 0080 2023     		movs	r3, #32
 180              	@ 194 "../../os/hal/platforms/STM32/USARTv1/serial_lld.c" 1
 181 0082 83F31188 		msr     BASEPRI, r3
 182              	@ 0 "" 2
 183              		.thumb
 184              	.LBE34:
 185              		.loc 1 195 0
 186 0086 1D48     		ldr	r0, .L50
 187 0088 1021     		movs	r1, #16
 188 008a FFF7FEFF 		bl	chEvtBroadcastFlagsI
 189              	.LVL17:
 190              	.LBB35:
 191              		.loc 1 196 0
 192 008e 0023     		movs	r3, #0
 193              	@ 196 "../../os/hal/platforms/STM32/USARTv1/serial_lld.c" 1
 194 0090 83F31188 		msr     BASEPRI, r3
 195              	@ 0 "" 2
 196              		.thumb
 197              	.LBE35:
 198              		.loc 1 197 0
 199 0094 4FF63F73 		movw	r3, #65343
 200 0098 3340     		ands	r3, r3, r6
 201              		.loc 1 198 0
 202 009a 4FF6BF72 		movw	r2, #65471
 203              		.loc 1 197 0
 204 009e AB81     		strh	r3, [r5, #12]	@ movhi
 205              		.loc 1 198 0
 206 00a0 2A80     		strh	r2, [r5]	@ movhi
 207              	.L14:
 208              	.LBE41:
 209              	.LBE43:
 210              		.loc 1 270 0
 211 00a2 BDE87040 		pop	{r4, r5, r6, lr}
 212              	.LVL18:
 213              		.loc 1 269 0
 214 00a6 FFF7FEBF 		b	_port_irq_epilogue
 215              	.LVL19:
 216              	.L47:
 217              	.LBB44:
 218              	.LBB42:
 219              	.LBB36:
 220              		.loc 1 161 0
 221 00aa 2023     		movs	r3, #32
 222              	@ 161 "../../os/hal/platforms/STM32/USARTv1/serial_lld.c" 1
 223 00ac 83F31188 		msr     BASEPRI, r3
 224              	@ 0 "" 2
 225              		.thumb
 226              	.LBE36:
 227              		.loc 1 162 0
 228 00b0 1248     		ldr	r0, .L50
ARM GAS  /tmp/ccGcML5g.s 			page 5


 229 00b2 4FF40071 		mov	r1, #512
 230 00b6 FFF7FEFF 		bl	chEvtBroadcastFlagsI
 231              	.LVL20:
 232              	.LBB37:
 233              		.loc 1 163 0
 234 00ba 0023     		movs	r3, #0
 235              	@ 163 "../../os/hal/platforms/STM32/USARTv1/serial_lld.c" 1
 236 00bc 83F31188 		msr     BASEPRI, r3
 237              	@ 0 "" 2
 238              		.thumb
 239              	.LBE37:
 240              		.loc 1 164 0
 241 00c0 4FF6FF63 		movw	r3, #65279
 242 00c4 2B80     		strh	r3, [r5]	@ movhi
 243 00c6 A8E7     		b	.L3
 244              	.LVL21:
 245              	.L48:
 246              	.LBB38:
 247              	.LBB39:
 248              		.loc 1 181 0
 249 00c8 2023     		movs	r3, #32
 250              	@ 181 "../../os/hal/platforms/STM32/USARTv1/serial_lld.c" 1
 251 00ca 83F31188 		msr     BASEPRI, r3
 252              	@ 0 "" 2
 253              		.thumb
 254              	.LBE39:
 255              		.loc 1 182 0
 256 00ce 0C48     		ldr	r0, .L50+4
 257 00d0 FFF7FEFF 		bl	chOQGetI
 258              	.LVL22:
 259              		.loc 1 183 0
 260 00d4 0028     		cmp	r0, #0
 261              		.loc 1 188 0
 262 00d6 A4BF     		itt	ge
 263 00d8 80B2     		uxthge	r0, r0
 264              	.LVL23:
 265 00da A880     		strhge	r0, [r5, #4]	@ movhi
 266              		.loc 1 183 0
 267 00dc 03DB     		blt	.L49
 268              	.L13:
 269              	.LBB40:
 270              		.loc 1 189 0
 271 00de 0023     		movs	r3, #0
 272              	@ 189 "../../os/hal/platforms/STM32/USARTv1/serial_lld.c" 1
 273 00e0 83F31188 		msr     BASEPRI, r3
 274              	@ 0 "" 2
 275              		.thumb
 276 00e4 CAE7     		b	.L11
 277              	.L49:
 278              	.LBE40:
 279              		.loc 1 184 0
 280 00e6 0548     		ldr	r0, .L50
 281 00e8 0821     		movs	r1, #8
 282 00ea FFF7FEFF 		bl	chEvtBroadcastFlagsI
 283              	.LVL24:
 284              		.loc 1 185 0
 285 00ee 26F0C003 		bic	r3, r6, #192
ARM GAS  /tmp/ccGcML5g.s 			page 6


 286 00f2 43F04003 		orr	r3, r3, #64
 287 00f6 AB81     		strh	r3, [r5, #12]	@ movhi
 288 00f8 F1E7     		b	.L13
 289              	.L51:
 290 00fa 00BF     		.align	2
 291              	.L50:
 292 00fc 04000000 		.word	.LANCHOR0+4
 293 0100 30000000 		.word	.LANCHOR0+48
 294              	.LBE38:
 295              	.LBE42:
 296              	.LBE44:
 297              		.cfi_endproc
 298              	.LFE68:
 299              		.size	VectorD4, .-VectorD4
 300              		.section	.text.sd_lld_init,"ax",%progbits
 301              		.align	2
 302              		.global	sd_lld_init
 303              		.thumb
 304              		.thumb_func
 305              		.type	sd_lld_init, %function
 306              	sd_lld_init:
 307              	.LFB69:
 308              		.loc 1 377 0
 309              		.cfi_startproc
 310              		@ args = 0, pretend = 0, frame = 0
 311              		@ frame_needed = 0, uses_anonymous_args = 0
 312 0000 10B5     		push	{r4, lr}
 313              		.cfi_def_cfa_offset 8
 314              		.cfi_offset 4, -8
 315              		.cfi_offset 14, -4
 316              		.loc 1 380 0
 317 0002 40F20004 		movw	r4, #:lower16:.LANCHOR0
 318 0006 C0F20004 		movt	r4, #:upper16:.LANCHOR0
 319 000a 40F20002 		movw	r2, #:lower16:notify1
 320 000e 2046     		mov	r0, r4
 321 0010 C0F20002 		movt	r2, #:upper16:notify1
 322 0014 0021     		movs	r1, #0
 323 0016 FFF7FEFF 		bl	sdObjectInit
 324              	.LVL25:
 325              		.loc 1 381 0
 326 001a 4FF46053 		mov	r3, #14336
 327 001e C4F20103 		movt	r3, 16385
 328 0022 C4F8D430 		str	r3, [r4, #212]
 329 0026 10BD     		pop	{r4, pc}
 330              		.cfi_endproc
 331              	.LFE69:
 332              		.size	sd_lld_init, .-sd_lld_init
 333              		.section	.text.sd_lld_start,"ax",%progbits
 334              		.align	2
 335              		.global	sd_lld_start
 336              		.thumb
 337              		.thumb_func
 338              		.type	sd_lld_start, %function
 339              	sd_lld_start:
 340              	.LFB70:
 341              		.loc 1 420 0
 342              		.cfi_startproc
ARM GAS  /tmp/ccGcML5g.s 			page 7


 343              		@ args = 0, pretend = 0, frame = 0
 344              		@ frame_needed = 0, uses_anonymous_args = 0
 345              	.LVL26:
 346 0000 38B5     		push	{r3, r4, r5, lr}
 347              		.cfi_def_cfa_offset 16
 348              		.cfi_offset 3, -16
 349              		.cfi_offset 4, -12
 350              		.cfi_offset 5, -8
 351              		.cfi_offset 14, -4
 352              		.loc 1 423 0
 353 0002 40F20004 		movw	r4, #:lower16:.LANCHOR1
 354              		.loc 1 425 0
 355 0006 037A     		ldrb	r3, [r0, #8]	@ zero_extendqisi2
 356              		.loc 1 423 0
 357 0008 C0F20004 		movt	r4, #:upper16:.LANCHOR1
 358 000c 0029     		cmp	r1, #0
 359 000e 18BF     		it	ne
 360 0010 0C46     		movne	r4, r1
 361              	.LVL27:
 362              		.loc 1 425 0
 363 0012 012B     		cmp	r3, #1
 364              		.loc 1 420 0
 365 0014 0546     		mov	r5, r0
 366              		.loc 1 425 0
 367 0016 20D0     		beq	.L59
 368              	.LVL28:
 369              	.L55:
 370              	.LBB45:
 371              	.LBB46:
 372              		.loc 1 101 0
 373 0018 2168     		ldr	r1, [r4]
 374 001a 4FF45852 		mov	r2, #13824
 375 001e C0F26E12 		movt	r2, 366
 376              	.LBE46:
 377              	.LBE45:
 378              		.loc 1 420 0
 379 0022 D5F8D430 		ldr	r3, [r5, #212]
 380              	.LVL29:
 381              	.LBB48:
 382              	.LBB47:
 383              		.loc 1 101 0
 384 0026 B2FBF1F2 		udiv	r2, r2, r1
 385 002a 92B2     		uxth	r2, r2
 386 002c 1A81     		strh	r2, [r3, #8]	@ movhi
 387              		.loc 1 108 0
 388 002e A288     		ldrh	r2, [r4, #4]
 389              		.loc 1 106 0
 390 0030 E188     		ldrh	r1, [r4, #6]
 391              		.loc 1 107 0
 392 0032 2089     		ldrh	r0, [r4, #8]
 393              		.loc 1 108 0
 394 0034 42F40452 		orr	r2, r2, #8448
 395              		.loc 1 106 0
 396 0038 41F04004 		orr	r4, r1, #64
 397              	.LVL30:
 398              		.loc 1 108 0
 399 003c 42F02C02 		orr	r2, r2, #44
ARM GAS  /tmp/ccGcML5g.s 			page 8


 400              		.loc 1 107 0
 401 0040 40F00100 		orr	r0, r0, #1
 402              		.loc 1 108 0
 403 0044 92B2     		uxth	r2, r2
 404              		.loc 1 106 0
 405 0046 A4B2     		uxth	r4, r4
 406              		.loc 1 107 0
 407 0048 80B2     		uxth	r0, r0
 408              		.loc 1 111 0
 409 004a 0021     		movs	r1, #0
 410              		.loc 1 106 0
 411 004c 1C82     		strh	r4, [r3, #16]	@ movhi
 412              		.loc 1 107 0
 413 004e 9882     		strh	r0, [r3, #20]	@ movhi
 414              		.loc 1 108 0
 415 0050 9A81     		strh	r2, [r3, #12]	@ movhi
 416              		.loc 1 111 0
 417 0052 1980     		strh	r1, [r3]	@ movhi
 418              		.loc 1 112 0
 419 0054 1A88     		ldrh	r2, [r3]
 420              		.loc 1 113 0
 421 0056 9B88     		ldrh	r3, [r3, #4]
 422              	.LVL31:
 423 0058 38BD     		pop	{r3, r4, r5, pc}
 424              	.LVL32:
 425              	.L59:
 426              	.LBE47:
 427              	.LBE48:
 428              		.loc 1 427 0
 429 005a 40F20003 		movw	r3, #:lower16:.LANCHOR0
 430 005e C0F20003 		movt	r3, #:upper16:.LANCHOR0
 431 0062 9842     		cmp	r0, r3
 432 0064 D8D1     		bne	.L55
 433              		.loc 1 428 0
 434 0066 4FF48053 		mov	r3, #4096
 435 006a C4F20203 		movt	r3, 16386
 436 006e 9A69     		ldr	r2, [r3, #24]
 437              		.loc 1 429 0
 438 0070 2520     		movs	r0, #37
 439              	.LVL33:
 440              		.loc 1 428 0
 441 0072 42F48042 		orr	r2, r2, #16384
 442 0076 9A61     		str	r2, [r3, #24]
 443              		.loc 1 429 0
 444 0078 C021     		movs	r1, #192
 445 007a FFF7FEFF 		bl	nvicEnableVector
 446              	.LVL34:
 447 007e CBE7     		b	.L55
 448              		.cfi_endproc
 449              	.LFE70:
 450              		.size	sd_lld_start, .-sd_lld_start
 451              		.section	.text.sd_lld_stop,"ax",%progbits
 452              		.align	2
 453              		.global	sd_lld_stop
 454              		.thumb
 455              		.thumb_func
 456              		.type	sd_lld_stop, %function
ARM GAS  /tmp/ccGcML5g.s 			page 9


 457              	sd_lld_stop:
 458              	.LFB71:
 459              		.loc 1 481 0
 460              		.cfi_startproc
 461              		@ args = 0, pretend = 0, frame = 0
 462              		@ frame_needed = 0, uses_anonymous_args = 0
 463              		@ link register save eliminated.
 464              	.LVL35:
 465              		.loc 1 483 0
 466 0000 037A     		ldrb	r3, [r0, #8]	@ zero_extendqisi2
 467 0002 022B     		cmp	r3, #2
 468 0004 00D0     		beq	.L64
 469              	.L60:
 470 0006 7047     		bx	lr
 471              	.L64:
 472              		.loc 1 486 0
 473 0008 40F20003 		movw	r3, #:lower16:.LANCHOR0
 474              		.loc 1 484 0
 475 000c D0F8D420 		ldr	r2, [r0, #212]
 476              	.LVL36:
 477              		.loc 1 486 0
 478 0010 C0F20003 		movt	r3, #:upper16:.LANCHOR0
 479              	.LBB49:
 480              	.LBB50:
 481              		.loc 1 124 0
 482 0014 0021     		movs	r1, #0
 483              	.LBE50:
 484              	.LBE49:
 485              		.loc 1 486 0
 486 0016 9842     		cmp	r0, r3
 487              	.LBB52:
 488              	.LBB51:
 489              		.loc 1 124 0
 490 0018 9181     		strh	r1, [r2, #12]	@ movhi
 491              		.loc 1 125 0
 492 001a 1182     		strh	r1, [r2, #16]	@ movhi
 493              		.loc 1 126 0
 494 001c 9182     		strh	r1, [r2, #20]	@ movhi
 495              	.LBE51:
 496              	.LBE52:
 497              		.loc 1 486 0
 498 001e F2D1     		bne	.L60
 499              		.loc 1 487 0
 500 0020 4FF48053 		mov	r3, #4096
 501 0024 C4F20203 		movt	r3, 16386
 502 0028 9A69     		ldr	r2, [r3, #24]
 503              	.LVL37:
 504              		.loc 1 488 0
 505 002a 2520     		movs	r0, #37
 506              	.LVL38:
 507              		.loc 1 487 0
 508 002c 22F48042 		bic	r2, r2, #16384
 509 0030 9A61     		str	r2, [r3, #24]
 510              		.loc 1 488 0
 511 0032 FFF7FEBF 		b	nvicDisableVector
 512              	.LVL39:
 513              		.cfi_endproc
ARM GAS  /tmp/ccGcML5g.s 			page 10


 514              	.LFE71:
 515              		.size	sd_lld_stop, .-sd_lld_stop
 516              		.global	SD1
 517 0036 00BF     		.section	.rodata.default_config,"a",%progbits
 518              		.align	2
 519              		.set	.LANCHOR1,. + 0
 520              		.type	default_config, %object
 521              		.size	default_config, 12
 522              	default_config:
 523 0000 00960000 		.word	38400
 524 0004 0000     		.short	0
 525 0006 0040     		.short	16384
 526 0008 0000     		.short	0
 527 000a 0000     		.space	2
 528              		.section	.bss.SD1,"aw",%nobits
 529              		.align	2
 530              		.set	.LANCHOR0,. + 0
 531              		.type	SD1, %object
 532              		.size	SD1, 216
 533              	SD1:
 534 0000 00000000 		.space	216
 534      00000000 
 534      00000000 
 534      00000000 
 534      00000000 
 535              		.text
 536              	.Letext0:
 537              		.file 2 "/usr/lib/gcc/arm-none-eabi/4.8.2/include/stddef.h"
 538              		.file 3 "/usr/include/newlib/machine/_default_types.h"
 539              		.file 4 "/usr/include/newlib/stdint.h"
 540              		.file 5 "../../os/ports/GCC/ARMCMx/chtypes.h"
 541              		.file 6 "../../os/kernel/include/chlists.h"
 542              		.file 7 "../../os/kernel/include/chthreads.h"
 543              		.file 8 "../../os/ports/GCC/ARMCMx/chcore_v7m.h"
 544              		.file 9 "../../os/kernel/include/chmtx.h"
 545              		.file 10 "../../os/kernel/include/chevents.h"
 546              		.file 11 "../../os/kernel/include/chqueues.h"
 547              		.file 12 "../../os/hal/platforms/STM32F1xx/stm32f10x.h"
 548              		.file 13 "../../os/hal/include/serial.h"
 549              		.file 14 "../../os/hal/platforms/STM32/USARTv1/serial_lld.h"
 550              		.file 15 "../../os/ports/common/ARMCMx/nvic.h"
 551              		.file 16 "../../os/ports/common/ARMCMx/CMSIS/include/core_cm3.h"
 552              		.section	.debug_info,"",%progbits
 553              	.Ldebug_info0:
 554 0000 F60D0000 		.4byte	0xdf6
 555 0004 0400     		.2byte	0x4
 556 0006 00000000 		.4byte	.Ldebug_abbrev0
 557 000a 04       		.byte	0x4
 558 000b 01       		.uleb128 0x1
 559 000c 11020000 		.4byte	.LASF132
 560 0010 01       		.byte	0x1
 561 0011 BC050000 		.4byte	.LASF133
 562 0015 FE000000 		.4byte	.LASF134
 563 0019 50000000 		.4byte	.Ldebug_ranges0+0x50
 564 001d 00000000 		.4byte	0
 565 0021 00000000 		.4byte	.Ldebug_line0
 566 0025 02       		.uleb128 0x2
ARM GAS  /tmp/ccGcML5g.s 			page 11


 567 0026 04       		.byte	0x4
 568 0027 05       		.byte	0x5
 569 0028 696E7400 		.ascii	"int\000"
 570 002c 03       		.uleb128 0x3
 571 002d 00000000 		.4byte	.LASF2
 572 0031 02       		.byte	0x2
 573 0032 D4       		.byte	0xd4
 574 0033 37000000 		.4byte	0x37
 575 0037 04       		.uleb128 0x4
 576 0038 04       		.byte	0x4
 577 0039 07       		.byte	0x7
 578 003a A2010000 		.4byte	.LASF0
 579 003e 04       		.uleb128 0x4
 580 003f 01       		.byte	0x1
 581 0040 06       		.byte	0x6
 582 0041 97000000 		.4byte	.LASF1
 583 0045 03       		.uleb128 0x3
 584 0046 1A000000 		.4byte	.LASF3
 585 004a 03       		.byte	0x3
 586 004b 1C       		.byte	0x1c
 587 004c 50000000 		.4byte	0x50
 588 0050 04       		.uleb128 0x4
 589 0051 01       		.byte	0x1
 590 0052 08       		.byte	0x8
 591 0053 EA030000 		.4byte	.LASF4
 592 0057 04       		.uleb128 0x4
 593 0058 02       		.byte	0x2
 594 0059 05       		.byte	0x5
 595 005a 2C040000 		.4byte	.LASF5
 596 005e 03       		.uleb128 0x3
 597 005f 02050000 		.4byte	.LASF6
 598 0063 03       		.byte	0x3
 599 0064 26       		.byte	0x26
 600 0065 69000000 		.4byte	0x69
 601 0069 04       		.uleb128 0x4
 602 006a 02       		.byte	0x2
 603 006b 07       		.byte	0x7
 604 006c F1010000 		.4byte	.LASF7
 605 0070 03       		.uleb128 0x3
 606 0071 29050000 		.4byte	.LASF8
 607 0075 03       		.byte	0x3
 608 0076 37       		.byte	0x37
 609 0077 7B000000 		.4byte	0x7b
 610 007b 04       		.uleb128 0x4
 611 007c 04       		.byte	0x4
 612 007d 05       		.byte	0x5
 613 007e E3000000 		.4byte	.LASF9
 614 0082 03       		.uleb128 0x3
 615 0083 6F010000 		.4byte	.LASF10
 616 0087 03       		.byte	0x3
 617 0088 38       		.byte	0x38
 618 0089 8D000000 		.4byte	0x8d
 619 008d 04       		.uleb128 0x4
 620 008e 04       		.byte	0x4
 621 008f 07       		.byte	0x7
 622 0090 CF040000 		.4byte	.LASF11
 623 0094 04       		.uleb128 0x4
ARM GAS  /tmp/ccGcML5g.s 			page 12


 624 0095 08       		.byte	0x8
 625 0096 05       		.byte	0x5
 626 0097 89000000 		.4byte	.LASF12
 627 009b 04       		.uleb128 0x4
 628 009c 08       		.byte	0x8
 629 009d 07       		.byte	0x7
 630 009e 3F000000 		.4byte	.LASF13
 631 00a2 03       		.uleb128 0x3
 632 00a3 88050000 		.4byte	.LASF14
 633 00a7 04       		.byte	0x4
 634 00a8 2A       		.byte	0x2a
 635 00a9 45000000 		.4byte	0x45
 636 00ad 03       		.uleb128 0x3
 637 00ae AF010000 		.4byte	.LASF15
 638 00b2 04       		.byte	0x4
 639 00b3 36       		.byte	0x36
 640 00b4 5E000000 		.4byte	0x5e
 641 00b8 03       		.uleb128 0x3
 642 00b9 E2030000 		.4byte	.LASF16
 643 00bd 04       		.byte	0x4
 644 00be 41       		.byte	0x41
 645 00bf 70000000 		.4byte	0x70
 646 00c3 03       		.uleb128 0x3
 647 00c4 9D040000 		.4byte	.LASF17
 648 00c8 04       		.byte	0x4
 649 00c9 42       		.byte	0x42
 650 00ca 82000000 		.4byte	0x82
 651 00ce 04       		.uleb128 0x4
 652 00cf 01       		.byte	0x1
 653 00d0 02       		.byte	0x2
 654 00d1 DC030000 		.4byte	.LASF18
 655 00d5 03       		.uleb128 0x3
 656 00d6 C1020000 		.4byte	.LASF19
 657 00da 05       		.byte	0x5
 658 00db 2C       		.byte	0x2c
 659 00dc A2000000 		.4byte	0xa2
 660 00e0 03       		.uleb128 0x3
 661 00e1 F5000000 		.4byte	.LASF20
 662 00e5 05       		.byte	0x5
 663 00e6 2D       		.byte	0x2d
 664 00e7 A2000000 		.4byte	0xa2
 665 00eb 03       		.uleb128 0x3
 666 00ec 81030000 		.4byte	.LASF21
 667 00f0 05       		.byte	0x5
 668 00f1 2E       		.byte	0x2e
 669 00f2 A2000000 		.4byte	0xa2
 670 00f6 03       		.uleb128 0x3
 671 00f7 B8000000 		.4byte	.LASF22
 672 00fb 05       		.byte	0x5
 673 00fc 2F       		.byte	0x2f
 674 00fd A2000000 		.4byte	0xa2
 675 0101 03       		.uleb128 0x3
 676 0102 CC030000 		.4byte	.LASF23
 677 0106 05       		.byte	0x5
 678 0107 30       		.byte	0x30
 679 0108 C3000000 		.4byte	0xc3
 680 010c 03       		.uleb128 0x3
ARM GAS  /tmp/ccGcML5g.s 			page 13


 681 010d 04020000 		.4byte	.LASF24
 682 0111 05       		.byte	0x5
 683 0112 31       		.byte	0x31
 684 0113 B8000000 		.4byte	0xb8
 685 0117 03       		.uleb128 0x3
 686 0118 D5020000 		.4byte	.LASF25
 687 011c 05       		.byte	0x5
 688 011d 33       		.byte	0x33
 689 011e C3000000 		.4byte	0xc3
 690 0122 03       		.uleb128 0x3
 691 0123 53050000 		.4byte	.LASF26
 692 0127 05       		.byte	0x5
 693 0128 34       		.byte	0x34
 694 0129 C3000000 		.4byte	0xc3
 695 012d 03       		.uleb128 0x3
 696 012e 14050000 		.4byte	.LASF27
 697 0132 05       		.byte	0x5
 698 0133 35       		.byte	0x35
 699 0134 C3000000 		.4byte	0xc3
 700 0138 03       		.uleb128 0x3
 701 0139 67040000 		.4byte	.LASF28
 702 013d 06       		.byte	0x6
 703 013e 2A       		.byte	0x2a
 704 013f 43010000 		.4byte	0x143
 705 0143 05       		.uleb128 0x5
 706 0144 67040000 		.4byte	.LASF28
 707 0148 48       		.byte	0x48
 708 0149 07       		.byte	0x7
 709 014a 5E       		.byte	0x5e
 710 014b 40020000 		.4byte	0x240
 711 014f 06       		.uleb128 0x6
 712 0150 36030000 		.4byte	.LASF29
 713 0154 07       		.byte	0x7
 714 0155 5F       		.byte	0x5f
 715 0156 61020000 		.4byte	0x261
 716 015a 00       		.byte	0
 717 015b 06       		.uleb128 0x6
 718 015c BB030000 		.4byte	.LASF30
 719 0160 07       		.byte	0x7
 720 0161 61       		.byte	0x61
 721 0162 61020000 		.4byte	0x261
 722 0166 04       		.byte	0x4
 723 0167 06       		.uleb128 0x6
 724 0168 9B050000 		.4byte	.LASF31
 725 016c 07       		.byte	0x7
 726 016d 63       		.byte	0x63
 727 016e 01010000 		.4byte	0x101
 728 0172 08       		.byte	0x8
 729 0173 06       		.uleb128 0x6
 730 0174 09060000 		.4byte	.LASF32
 731 0178 07       		.byte	0x7
 732 0179 64       		.byte	0x64
 733 017a 1B030000 		.4byte	0x31b
 734 017e 0C       		.byte	0xc
 735 017f 06       		.uleb128 0x6
 736 0180 67010000 		.4byte	.LASF33
 737 0184 07       		.byte	0x7
ARM GAS  /tmp/ccGcML5g.s 			page 14


 738 0185 66       		.byte	0x66
 739 0186 61020000 		.4byte	0x261
 740 018a 10       		.byte	0x10
 741 018b 06       		.uleb128 0x6
 742 018c 3D030000 		.4byte	.LASF34
 743 0190 07       		.byte	0x7
 744 0191 67       		.byte	0x67
 745 0192 61020000 		.4byte	0x261
 746 0196 14       		.byte	0x14
 747 0197 06       		.uleb128 0x6
 748 0198 65050000 		.4byte	.LASF35
 749 019c 07       		.byte	0x7
 750 019d 6E       		.byte	0x6e
 751 019e 36040000 		.4byte	0x436
 752 01a2 18       		.byte	0x18
 753 01a3 06       		.uleb128 0x6
 754 01a4 1A040000 		.4byte	.LASF36
 755 01a8 07       		.byte	0x7
 756 01a9 79       		.byte	0x79
 757 01aa E0000000 		.4byte	0xe0
 758 01ae 1C       		.byte	0x1c
 759 01af 06       		.uleb128 0x6
 760 01b0 47040000 		.4byte	.LASF37
 761 01b4 07       		.byte	0x7
 762 01b5 7D       		.byte	0x7d
 763 01b6 D5000000 		.4byte	0xd5
 764 01ba 1D       		.byte	0x1d
 765 01bb 06       		.uleb128 0x6
 766 01bc 33010000 		.4byte	.LASF38
 767 01c0 07       		.byte	0x7
 768 01c1 82       		.byte	0x82
 769 01c2 EB000000 		.4byte	0xeb
 770 01c6 1E       		.byte	0x1e
 771 01c7 06       		.uleb128 0x6
 772 01c8 36040000 		.4byte	.LASF39
 773 01cc 07       		.byte	0x7
 774 01cd 88       		.byte	0x88
 775 01ce F6000000 		.4byte	0xf6
 776 01d2 1F       		.byte	0x1f
 777 01d3 06       		.uleb128 0x6
 778 01d4 4B010000 		.4byte	.LASF40
 779 01d8 07       		.byte	0x7
 780 01d9 8F       		.byte	0x8f
 781 01da 48030000 		.4byte	0x348
 782 01de 20       		.byte	0x20
 783 01df 07       		.uleb128 0x7
 784 01e0 705F7500 		.ascii	"p_u\000"
 785 01e4 07       		.byte	0x7
 786 01e5 B4       		.byte	0xb4
 787 01e6 01040000 		.4byte	0x401
 788 01ea 24       		.byte	0x24
 789 01eb 06       		.uleb128 0x6
 790 01ec 0F060000 		.4byte	.LASF41
 791 01f0 07       		.byte	0x7
 792 01f1 B9       		.byte	0xb9
 793 01f2 87020000 		.4byte	0x287
 794 01f6 28       		.byte	0x28
ARM GAS  /tmp/ccGcML5g.s 			page 15


 795 01f7 06       		.uleb128 0x6
 796 01f8 CF010000 		.4byte	.LASF42
 797 01fc 07       		.byte	0x7
 798 01fd BF       		.byte	0xbf
 799 01fe 67020000 		.4byte	0x267
 800 0202 2C       		.byte	0x2c
 801 0203 06       		.uleb128 0x6
 802 0204 82050000 		.4byte	.LASF43
 803 0208 07       		.byte	0x7
 804 0209 C3       		.byte	0xc3
 805 020a 0C010000 		.4byte	0x10c
 806 020e 34       		.byte	0x34
 807 020f 06       		.uleb128 0x6
 808 0210 7E040000 		.4byte	.LASF44
 809 0214 07       		.byte	0x7
 810 0215 C9       		.byte	0xc9
 811 0216 17010000 		.4byte	0x117
 812 021a 38       		.byte	0x38
 813 021b 06       		.uleb128 0x6
 814 021c 22040000 		.4byte	.LASF45
 815 0220 07       		.byte	0x7
 816 0221 D0       		.byte	0xd0
 817 0222 48040000 		.4byte	0x448
 818 0226 3C       		.byte	0x3c
 819 0227 06       		.uleb128 0x6
 820 0228 1E050000 		.4byte	.LASF46
 821 022c 07       		.byte	0x7
 822 022d D4       		.byte	0xd4
 823 022e 01010000 		.4byte	0x101
 824 0232 40       		.byte	0x40
 825 0233 06       		.uleb128 0x6
 826 0234 A8000000 		.4byte	.LASF47
 827 0238 07       		.byte	0x7
 828 0239 DA       		.byte	0xda
 829 023a 9D020000 		.4byte	0x29d
 830 023e 44       		.byte	0x44
 831 023f 00       		.byte	0
 832 0240 08       		.uleb128 0x8
 833 0241 08       		.byte	0x8
 834 0242 06       		.byte	0x6
 835 0243 61       		.byte	0x61
 836 0244 61020000 		.4byte	0x261
 837 0248 06       		.uleb128 0x6
 838 0249 36030000 		.4byte	.LASF29
 839 024d 06       		.byte	0x6
 840 024e 62       		.byte	0x62
 841 024f 61020000 		.4byte	0x261
 842 0253 00       		.byte	0
 843 0254 06       		.uleb128 0x6
 844 0255 BB030000 		.4byte	.LASF30
 845 0259 06       		.byte	0x6
 846 025a 64       		.byte	0x64
 847 025b 61020000 		.4byte	0x261
 848 025f 04       		.byte	0x4
 849 0260 00       		.byte	0
 850 0261 09       		.uleb128 0x9
 851 0262 04       		.byte	0x4
ARM GAS  /tmp/ccGcML5g.s 			page 16


 852 0263 38010000 		.4byte	0x138
 853 0267 03       		.uleb128 0x3
 854 0268 4E030000 		.4byte	.LASF48
 855 026c 06       		.byte	0x6
 856 026d 66       		.byte	0x66
 857 026e 40020000 		.4byte	0x240
 858 0272 08       		.uleb128 0x8
 859 0273 04       		.byte	0x4
 860 0274 06       		.byte	0x6
 861 0275 6B       		.byte	0x6b
 862 0276 87020000 		.4byte	0x287
 863 027a 06       		.uleb128 0x6
 864 027b 36030000 		.4byte	.LASF29
 865 027f 06       		.byte	0x6
 866 0280 6D       		.byte	0x6d
 867 0281 61020000 		.4byte	0x261
 868 0285 00       		.byte	0
 869 0286 00       		.byte	0
 870 0287 03       		.uleb128 0x3
 871 0288 C9020000 		.4byte	.LASF49
 872 028c 06       		.byte	0x6
 873 028d 70       		.byte	0x70
 874 028e 72020000 		.4byte	0x272
 875 0292 03       		.uleb128 0x3
 876 0293 7A010000 		.4byte	.LASF50
 877 0297 08       		.byte	0x8
 878 0298 E5       		.byte	0xe5
 879 0299 9D020000 		.4byte	0x29d
 880 029d 0A       		.uleb128 0xa
 881 029e 04       		.byte	0x4
 882 029f 0B       		.uleb128 0xb
 883 02a0 43050000 		.4byte	.LASF51
 884 02a4 24       		.byte	0x24
 885 02a5 08       		.byte	0x8
 886 02a6 0C01     		.2byte	0x10c
 887 02a8 1B030000 		.4byte	0x31b
 888 02ac 0C       		.uleb128 0xc
 889 02ad 723400   		.ascii	"r4\000"
 890 02b0 08       		.byte	0x8
 891 02b1 1F01     		.2byte	0x11f
 892 02b3 92020000 		.4byte	0x292
 893 02b7 00       		.byte	0
 894 02b8 0C       		.uleb128 0xc
 895 02b9 723500   		.ascii	"r5\000"
 896 02bc 08       		.byte	0x8
 897 02bd 2001     		.2byte	0x120
 898 02bf 92020000 		.4byte	0x292
 899 02c3 04       		.byte	0x4
 900 02c4 0C       		.uleb128 0xc
 901 02c5 723600   		.ascii	"r6\000"
 902 02c8 08       		.byte	0x8
 903 02c9 2101     		.2byte	0x121
 904 02cb 92020000 		.4byte	0x292
 905 02cf 08       		.byte	0x8
 906 02d0 0C       		.uleb128 0xc
 907 02d1 723700   		.ascii	"r7\000"
 908 02d4 08       		.byte	0x8
ARM GAS  /tmp/ccGcML5g.s 			page 17


 909 02d5 2201     		.2byte	0x122
 910 02d7 92020000 		.4byte	0x292
 911 02db 0C       		.byte	0xc
 912 02dc 0C       		.uleb128 0xc
 913 02dd 723800   		.ascii	"r8\000"
 914 02e0 08       		.byte	0x8
 915 02e1 2301     		.2byte	0x123
 916 02e3 92020000 		.4byte	0x292
 917 02e7 10       		.byte	0x10
 918 02e8 0C       		.uleb128 0xc
 919 02e9 723900   		.ascii	"r9\000"
 920 02ec 08       		.byte	0x8
 921 02ed 2401     		.2byte	0x124
 922 02ef 92020000 		.4byte	0x292
 923 02f3 14       		.byte	0x14
 924 02f4 0C       		.uleb128 0xc
 925 02f5 72313000 		.ascii	"r10\000"
 926 02f9 08       		.byte	0x8
 927 02fa 2501     		.2byte	0x125
 928 02fc 92020000 		.4byte	0x292
 929 0300 18       		.byte	0x18
 930 0301 0C       		.uleb128 0xc
 931 0302 72313100 		.ascii	"r11\000"
 932 0306 08       		.byte	0x8
 933 0307 2601     		.2byte	0x126
 934 0309 92020000 		.4byte	0x292
 935 030d 1C       		.byte	0x1c
 936 030e 0C       		.uleb128 0xc
 937 030f 6C7200   		.ascii	"lr\000"
 938 0312 08       		.byte	0x8
 939 0313 2701     		.2byte	0x127
 940 0315 92020000 		.4byte	0x292
 941 0319 20       		.byte	0x20
 942 031a 00       		.byte	0
 943 031b 0B       		.uleb128 0xb
 944 031c 3B050000 		.4byte	.LASF52
 945 0320 04       		.byte	0x4
 946 0321 08       		.byte	0x8
 947 0322 3101     		.2byte	0x131
 948 0324 36030000 		.4byte	0x336
 949 0328 0C       		.uleb128 0xc
 950 0329 72313300 		.ascii	"r13\000"
 951 032d 08       		.byte	0x8
 952 032e 3201     		.2byte	0x132
 953 0330 36030000 		.4byte	0x336
 954 0334 00       		.byte	0
 955 0335 00       		.byte	0
 956 0336 09       		.uleb128 0x9
 957 0337 04       		.byte	0x4
 958 0338 9F020000 		.4byte	0x29f
 959 033c 0D       		.uleb128 0xd
 960 033d C3000000 		.4byte	0xc3
 961 0341 04       		.uleb128 0x4
 962 0342 04       		.byte	0x4
 963 0343 07       		.byte	0x7
 964 0344 1D030000 		.4byte	.LASF53
 965 0348 0D       		.uleb128 0xd
ARM GAS  /tmp/ccGcML5g.s 			page 18


 966 0349 2D010000 		.4byte	0x12d
 967 034d 05       		.uleb128 0x5
 968 034e 30030000 		.4byte	.LASF54
 969 0352 10       		.byte	0x10
 970 0353 09       		.byte	0x9
 971 0354 2C       		.byte	0x2c
 972 0355 7E030000 		.4byte	0x37e
 973 0359 06       		.uleb128 0x6
 974 035a B0000000 		.4byte	.LASF55
 975 035e 09       		.byte	0x9
 976 035f 2D       		.byte	0x2d
 977 0360 67020000 		.4byte	0x267
 978 0364 00       		.byte	0
 979 0365 06       		.uleb128 0x6
 980 0366 01060000 		.4byte	.LASF56
 981 036a 09       		.byte	0x9
 982 036b 2F       		.byte	0x2f
 983 036c 61020000 		.4byte	0x261
 984 0370 08       		.byte	0x8
 985 0371 06       		.uleb128 0x6
 986 0372 0D050000 		.4byte	.LASF57
 987 0376 09       		.byte	0x9
 988 0377 31       		.byte	0x31
 989 0378 7E030000 		.4byte	0x37e
 990 037c 0C       		.byte	0xc
 991 037d 00       		.byte	0
 992 037e 09       		.uleb128 0x9
 993 037f 04       		.byte	0x4
 994 0380 4D030000 		.4byte	0x34d
 995 0384 03       		.uleb128 0x3
 996 0385 30030000 		.4byte	.LASF54
 997 0389 09       		.byte	0x9
 998 038a 33       		.byte	0x33
 999 038b 4D030000 		.4byte	0x34d
 1000 038f 03       		.uleb128 0x3
 1001 0390 A2050000 		.4byte	.LASF58
 1002 0394 0A       		.byte	0xa
 1003 0395 2C       		.byte	0x2c
 1004 0396 9A030000 		.4byte	0x39a
 1005 039a 05       		.uleb128 0x5
 1006 039b A2050000 		.4byte	.LASF58
 1007 039f 10       		.byte	0x10
 1008 03a0 0A       		.byte	0xa
 1009 03a1 31       		.byte	0x31
 1010 03a2 D7030000 		.4byte	0x3d7
 1011 03a6 06       		.uleb128 0x6
 1012 03a7 4F040000 		.4byte	.LASF59
 1013 03ab 0A       		.byte	0xa
 1014 03ac 32       		.byte	0x32
 1015 03ad D7030000 		.4byte	0x3d7
 1016 03b1 00       		.byte	0
 1017 03b2 06       		.uleb128 0x6
 1018 03b3 05040000 		.4byte	.LASF60
 1019 03b7 0A       		.byte	0xa
 1020 03b8 35       		.byte	0x35
 1021 03b9 61020000 		.4byte	0x261
 1022 03bd 04       		.byte	0x4
ARM GAS  /tmp/ccGcML5g.s 			page 19


 1023 03be 06       		.uleb128 0x6
 1024 03bf 64030000 		.4byte	.LASF61
 1025 03c3 0A       		.byte	0xa
 1026 03c4 37       		.byte	0x37
 1027 03c5 17010000 		.4byte	0x117
 1028 03c9 08       		.byte	0x8
 1029 03ca 06       		.uleb128 0x6
 1030 03cb 11040000 		.4byte	.LASF62
 1031 03cf 0A       		.byte	0xa
 1032 03d0 3A       		.byte	0x3a
 1033 03d1 22010000 		.4byte	0x122
 1034 03d5 0C       		.byte	0xc
 1035 03d6 00       		.byte	0
 1036 03d7 09       		.uleb128 0x9
 1037 03d8 04       		.byte	0x4
 1038 03d9 8F030000 		.4byte	0x38f
 1039 03dd 05       		.uleb128 0x5
 1040 03de 90010000 		.4byte	.LASF63
 1041 03e2 04       		.byte	0x4
 1042 03e3 0A       		.byte	0xa
 1043 03e4 41       		.byte	0x41
 1044 03e5 F6030000 		.4byte	0x3f6
 1045 03e9 06       		.uleb128 0x6
 1046 03ea 6C050000 		.4byte	.LASF64
 1047 03ee 0A       		.byte	0xa
 1048 03ef 42       		.byte	0x42
 1049 03f0 D7030000 		.4byte	0x3d7
 1050 03f4 00       		.byte	0
 1051 03f5 00       		.byte	0
 1052 03f6 03       		.uleb128 0x3
 1053 03f7 90010000 		.4byte	.LASF63
 1054 03fb 0A       		.byte	0xa
 1055 03fc 45       		.byte	0x45
 1056 03fd DD030000 		.4byte	0x3dd
 1057 0401 0E       		.uleb128 0xe
 1058 0402 04       		.byte	0x4
 1059 0403 07       		.byte	0x7
 1060 0404 96       		.byte	0x96
 1061 0405 36040000 		.4byte	0x436
 1062 0409 0F       		.uleb128 0xf
 1063 040a 07000000 		.4byte	.LASF65
 1064 040e 07       		.byte	0x7
 1065 040f 9D       		.byte	0x9d
 1066 0410 0C010000 		.4byte	0x10c
 1067 0414 0F       		.uleb128 0xf
 1068 0415 56000000 		.4byte	.LASF66
 1069 0419 07       		.byte	0x7
 1070 041a A4       		.byte	0xa4
 1071 041b 0C010000 		.4byte	0x10c
 1072 041f 0F       		.uleb128 0xf
 1073 0420 B0050000 		.4byte	.LASF67
 1074 0424 07       		.byte	0x7
 1075 0425 AB       		.byte	0xab
 1076 0426 9D020000 		.4byte	0x29d
 1077 042a 0F       		.uleb128 0xf
 1078 042b 40040000 		.4byte	.LASF68
 1079 042f 07       		.byte	0x7
ARM GAS  /tmp/ccGcML5g.s 			page 20


 1080 0430 B2       		.byte	0xb2
 1081 0431 17010000 		.4byte	0x117
 1082 0435 00       		.byte	0
 1083 0436 09       		.uleb128 0x9
 1084 0437 04       		.byte	0x4
 1085 0438 3C040000 		.4byte	0x43c
 1086 043c 10       		.uleb128 0x10
 1087 043d 41040000 		.4byte	0x441
 1088 0441 04       		.uleb128 0x4
 1089 0442 01       		.byte	0x1
 1090 0443 08       		.byte	0x8
 1091 0444 E6040000 		.4byte	.LASF69
 1092 0448 09       		.uleb128 0x9
 1093 0449 04       		.byte	0x4
 1094 044a 84030000 		.4byte	0x384
 1095 044e 09       		.uleb128 0x9
 1096 044f 04       		.byte	0x4
 1097 0450 54040000 		.4byte	0x454
 1098 0454 11       		.uleb128 0x11
 1099 0455 0C010000 		.4byte	0x10c
 1100 0459 63040000 		.4byte	0x463
 1101 045d 12       		.uleb128 0x12
 1102 045e 9D020000 		.4byte	0x29d
 1103 0462 00       		.byte	0
 1104 0463 03       		.uleb128 0x3
 1105 0464 FA020000 		.4byte	.LASF70
 1106 0468 0B       		.byte	0xb
 1107 0469 37       		.byte	0x37
 1108 046a 6E040000 		.4byte	0x46e
 1109 046e 05       		.uleb128 0x5
 1110 046f FA020000 		.4byte	.LASF70
 1111 0473 24       		.byte	0x24
 1112 0474 0B       		.byte	0xb
 1113 0475 45       		.byte	0x45
 1114 0476 DB040000 		.4byte	0x4db
 1115 047a 06       		.uleb128 0x6
 1116 047b 7F000000 		.4byte	.LASF71
 1117 047f 0B       		.byte	0xb
 1118 0480 46       		.byte	0x46
 1119 0481 67020000 		.4byte	0x267
 1120 0485 00       		.byte	0
 1121 0486 06       		.uleb128 0x6
 1122 0487 26030000 		.4byte	.LASF72
 1123 048b 0B       		.byte	0xb
 1124 048c 47       		.byte	0x47
 1125 048d 2C000000 		.4byte	0x2c
 1126 0491 08       		.byte	0x8
 1127 0492 06       		.uleb128 0x6
 1128 0493 3A010000 		.4byte	.LASF73
 1129 0497 0B       		.byte	0xb
 1130 0498 48       		.byte	0x48
 1131 0499 FD040000 		.4byte	0x4fd
 1132 049d 0C       		.byte	0xc
 1133 049e 06       		.uleb128 0x6
 1134 049f 5F050000 		.4byte	.LASF74
 1135 04a3 0B       		.byte	0xb
 1136 04a4 49       		.byte	0x49
ARM GAS  /tmp/ccGcML5g.s 			page 21


 1137 04a5 FD040000 		.4byte	0x4fd
 1138 04a9 10       		.byte	0x10
 1139 04aa 06       		.uleb128 0x6
 1140 04ab 43010000 		.4byte	.LASF75
 1141 04af 0B       		.byte	0xb
 1142 04b0 4B       		.byte	0x4b
 1143 04b1 FD040000 		.4byte	0x4fd
 1144 04b5 14       		.byte	0x14
 1145 04b6 06       		.uleb128 0x6
 1146 04b7 D4030000 		.4byte	.LASF76
 1147 04bb 0B       		.byte	0xb
 1148 04bc 4C       		.byte	0x4c
 1149 04bd FD040000 		.4byte	0x4fd
 1150 04c1 18       		.byte	0x18
 1151 04c2 06       		.uleb128 0x6
 1152 04c3 79050000 		.4byte	.LASF77
 1153 04c7 0B       		.byte	0xb
 1154 04c8 4D       		.byte	0x4d
 1155 04c9 DB040000 		.4byte	0x4db
 1156 04cd 1C       		.byte	0x1c
 1157 04ce 06       		.uleb128 0x6
 1158 04cf FA050000 		.4byte	.LASF78
 1159 04d3 0B       		.byte	0xb
 1160 04d4 4E       		.byte	0x4e
 1161 04d5 9D020000 		.4byte	0x29d
 1162 04d9 20       		.byte	0x20
 1163 04da 00       		.byte	0
 1164 04db 03       		.uleb128 0x3
 1165 04dc F0020000 		.4byte	.LASF79
 1166 04e0 0B       		.byte	0xb
 1167 04e1 3A       		.byte	0x3a
 1168 04e2 E6040000 		.4byte	0x4e6
 1169 04e6 09       		.uleb128 0x9
 1170 04e7 04       		.byte	0x4
 1171 04e8 EC040000 		.4byte	0x4ec
 1172 04ec 13       		.uleb128 0x13
 1173 04ed F7040000 		.4byte	0x4f7
 1174 04f1 12       		.uleb128 0x12
 1175 04f2 F7040000 		.4byte	0x4f7
 1176 04f6 00       		.byte	0
 1177 04f7 09       		.uleb128 0x9
 1178 04f8 04       		.byte	0x4
 1179 04f9 63040000 		.4byte	0x463
 1180 04fd 09       		.uleb128 0x9
 1181 04fe 04       		.byte	0x4
 1182 04ff A2000000 		.4byte	0xa2
 1183 0503 03       		.uleb128 0x3
 1184 0504 90050000 		.4byte	.LASF80
 1185 0508 0B       		.byte	0xb
 1186 0509 82       		.byte	0x82
 1187 050a 63040000 		.4byte	0x463
 1188 050e 03       		.uleb128 0x3
 1189 050f 0E000000 		.4byte	.LASF81
 1190 0513 0B       		.byte	0xb
 1191 0514 F5       		.byte	0xf5
 1192 0515 63040000 		.4byte	0x463
 1193 0519 11       		.uleb128 0x11
ARM GAS  /tmp/ccGcML5g.s 			page 22


 1194 051a 2C000000 		.4byte	0x2c
 1195 051e 32050000 		.4byte	0x532
 1196 0522 12       		.uleb128 0x12
 1197 0523 9D020000 		.4byte	0x29d
 1198 0527 12       		.uleb128 0x12
 1199 0528 32050000 		.4byte	0x532
 1200 052c 12       		.uleb128 0x12
 1201 052d 2C000000 		.4byte	0x2c
 1202 0531 00       		.byte	0
 1203 0532 09       		.uleb128 0x9
 1204 0533 04       		.byte	0x4
 1205 0534 38050000 		.4byte	0x538
 1206 0538 10       		.uleb128 0x10
 1207 0539 A2000000 		.4byte	0xa2
 1208 053d 09       		.uleb128 0x9
 1209 053e 04       		.byte	0x4
 1210 053f 19050000 		.4byte	0x519
 1211 0543 11       		.uleb128 0x11
 1212 0544 2C000000 		.4byte	0x2c
 1213 0548 5C050000 		.4byte	0x55c
 1214 054c 12       		.uleb128 0x12
 1215 054d 9D020000 		.4byte	0x29d
 1216 0551 12       		.uleb128 0x12
 1217 0552 FD040000 		.4byte	0x4fd
 1218 0556 12       		.uleb128 0x12
 1219 0557 2C000000 		.4byte	0x2c
 1220 055b 00       		.byte	0
 1221 055c 09       		.uleb128 0x9
 1222 055d 04       		.byte	0x4
 1223 055e 43050000 		.4byte	0x543
 1224 0562 11       		.uleb128 0x11
 1225 0563 0C010000 		.4byte	0x10c
 1226 0567 76050000 		.4byte	0x576
 1227 056b 12       		.uleb128 0x12
 1228 056c 9D020000 		.4byte	0x29d
 1229 0570 12       		.uleb128 0x12
 1230 0571 A2000000 		.4byte	0xa2
 1231 0575 00       		.byte	0
 1232 0576 09       		.uleb128 0x9
 1233 0577 04       		.byte	0x4
 1234 0578 62050000 		.4byte	0x562
 1235 057c 0D       		.uleb128 0xd
 1236 057d AD000000 		.4byte	0xad
 1237 0581 0D       		.uleb128 0xd
 1238 0582 B8000000 		.4byte	0xb8
 1239 0586 14       		.uleb128 0x14
 1240 0587 28       		.byte	0x28
 1241 0588 0C       		.byte	0xc
 1242 0589 4304     		.2byte	0x443
 1243 058b 11060000 		.4byte	0x611
 1244 058f 0C       		.uleb128 0xc
 1245 0590 435200   		.ascii	"CR\000"
 1246 0593 0C       		.byte	0xc
 1247 0594 4504     		.2byte	0x445
 1248 0596 3C030000 		.4byte	0x33c
 1249 059a 00       		.byte	0
 1250 059b 15       		.uleb128 0x15
ARM GAS  /tmp/ccGcML5g.s 			page 23


 1251 059c B7050000 		.4byte	.LASF82
 1252 05a0 0C       		.byte	0xc
 1253 05a1 4604     		.2byte	0x446
 1254 05a3 3C030000 		.4byte	0x33c
 1255 05a7 04       		.byte	0x4
 1256 05a8 0C       		.uleb128 0xc
 1257 05a9 43495200 		.ascii	"CIR\000"
 1258 05ad 0C       		.byte	0xc
 1259 05ae 4704     		.2byte	0x447
 1260 05b0 3C030000 		.4byte	0x33c
 1261 05b4 08       		.byte	0x8
 1262 05b5 15       		.uleb128 0x15
 1263 05b6 EC000000 		.4byte	.LASF83
 1264 05ba 0C       		.byte	0xc
 1265 05bb 4804     		.2byte	0x448
 1266 05bd 3C030000 		.4byte	0x33c
 1267 05c1 0C       		.byte	0xc
 1268 05c2 15       		.uleb128 0x15
 1269 05c3 5B030000 		.4byte	.LASF84
 1270 05c7 0C       		.byte	0xc
 1271 05c8 4904     		.2byte	0x449
 1272 05ca 3C030000 		.4byte	0x33c
 1273 05ce 10       		.byte	0x10
 1274 05cf 15       		.uleb128 0x15
 1275 05d0 19060000 		.4byte	.LASF85
 1276 05d4 0C       		.byte	0xc
 1277 05d5 4A04     		.2byte	0x44a
 1278 05d7 3C030000 		.4byte	0x33c
 1279 05db 14       		.byte	0x14
 1280 05dc 15       		.uleb128 0x15
 1281 05dd 5F040000 		.4byte	.LASF86
 1282 05e1 0C       		.byte	0xc
 1283 05e2 4B04     		.2byte	0x44b
 1284 05e4 3C030000 		.4byte	0x33c
 1285 05e8 18       		.byte	0x18
 1286 05e9 15       		.uleb128 0x15
 1287 05ea 33050000 		.4byte	.LASF87
 1288 05ee 0C       		.byte	0xc
 1289 05ef 4C04     		.2byte	0x44c
 1290 05f1 3C030000 		.4byte	0x33c
 1291 05f5 1C       		.byte	0x1c
 1292 05f6 15       		.uleb128 0x15
 1293 05f7 74050000 		.4byte	.LASF88
 1294 05fb 0C       		.byte	0xc
 1295 05fc 4D04     		.2byte	0x44d
 1296 05fe 3C030000 		.4byte	0x33c
 1297 0602 20       		.byte	0x20
 1298 0603 0C       		.uleb128 0xc
 1299 0604 43535200 		.ascii	"CSR\000"
 1300 0608 0C       		.byte	0xc
 1301 0609 4E04     		.2byte	0x44e
 1302 060b 3C030000 		.4byte	0x33c
 1303 060f 24       		.byte	0x24
 1304 0610 00       		.byte	0
 1305 0611 16       		.uleb128 0x16
 1306 0612 C2000000 		.4byte	.LASF89
 1307 0616 0C       		.byte	0xc
ARM GAS  /tmp/ccGcML5g.s 			page 24


 1308 0617 5904     		.2byte	0x459
 1309 0619 86050000 		.4byte	0x586
 1310 061d 14       		.uleb128 0x14
 1311 061e 1C       		.byte	0x1c
 1312 061f 0C       		.byte	0xc
 1313 0620 E104     		.2byte	0x4e1
 1314 0622 DB060000 		.4byte	0x6db
 1315 0626 0C       		.uleb128 0xc
 1316 0627 535200   		.ascii	"SR\000"
 1317 062a 0C       		.byte	0xc
 1318 062b E304     		.2byte	0x4e3
 1319 062d 7C050000 		.4byte	0x57c
 1320 0631 00       		.byte	0
 1321 0632 15       		.uleb128 0x15
 1322 0633 89030000 		.4byte	.LASF90
 1323 0637 0C       		.byte	0xc
 1324 0638 E404     		.2byte	0x4e4
 1325 063a AD000000 		.4byte	0xad
 1326 063e 02       		.byte	0x2
 1327 063f 0C       		.uleb128 0xc
 1328 0640 445200   		.ascii	"DR\000"
 1329 0643 0C       		.byte	0xc
 1330 0644 E504     		.2byte	0x4e5
 1331 0646 7C050000 		.4byte	0x57c
 1332 064a 04       		.byte	0x4
 1333 064b 15       		.uleb128 0x15
 1334 064c 93030000 		.4byte	.LASF91
 1335 0650 0C       		.byte	0xc
 1336 0651 E604     		.2byte	0x4e6
 1337 0653 AD000000 		.4byte	0xad
 1338 0657 06       		.byte	0x6
 1339 0658 0C       		.uleb128 0xc
 1340 0659 42525200 		.ascii	"BRR\000"
 1341 065d 0C       		.byte	0xc
 1342 065e E704     		.2byte	0x4e7
 1343 0660 7C050000 		.4byte	0x57c
 1344 0664 08       		.byte	0x8
 1345 0665 15       		.uleb128 0x15
 1346 0666 9D030000 		.4byte	.LASF92
 1347 066a 0C       		.byte	0xc
 1348 066b E804     		.2byte	0x4e8
 1349 066d AD000000 		.4byte	0xad
 1350 0671 0A       		.byte	0xa
 1351 0672 0C       		.uleb128 0xc
 1352 0673 43523100 		.ascii	"CR1\000"
 1353 0677 0C       		.byte	0xc
 1354 0678 E904     		.2byte	0x4e9
 1355 067a 7C050000 		.4byte	0x57c
 1356 067e 0C       		.byte	0xc
 1357 067f 15       		.uleb128 0x15
 1358 0680 A7030000 		.4byte	.LASF93
 1359 0684 0C       		.byte	0xc
 1360 0685 EA04     		.2byte	0x4ea
 1361 0687 AD000000 		.4byte	0xad
 1362 068b 0E       		.byte	0xe
 1363 068c 0C       		.uleb128 0xc
 1364 068d 43523200 		.ascii	"CR2\000"
ARM GAS  /tmp/ccGcML5g.s 			page 25


 1365 0691 0C       		.byte	0xc
 1366 0692 EB04     		.2byte	0x4eb
 1367 0694 7C050000 		.4byte	0x57c
 1368 0698 10       		.byte	0x10
 1369 0699 15       		.uleb128 0x15
 1370 069a B1030000 		.4byte	.LASF94
 1371 069e 0C       		.byte	0xc
 1372 069f EC04     		.2byte	0x4ec
 1373 06a1 AD000000 		.4byte	0xad
 1374 06a5 12       		.byte	0x12
 1375 06a6 0C       		.uleb128 0xc
 1376 06a7 43523300 		.ascii	"CR3\000"
 1377 06ab 0C       		.byte	0xc
 1378 06ac ED04     		.2byte	0x4ed
 1379 06ae 7C050000 		.4byte	0x57c
 1380 06b2 14       		.byte	0x14
 1381 06b3 15       		.uleb128 0x15
 1382 06b4 93040000 		.4byte	.LASF95
 1383 06b8 0C       		.byte	0xc
 1384 06b9 EE04     		.2byte	0x4ee
 1385 06bb AD000000 		.4byte	0xad
 1386 06bf 16       		.byte	0x16
 1387 06c0 15       		.uleb128 0x15
 1388 06c1 A3000000 		.4byte	.LASF96
 1389 06c5 0C       		.byte	0xc
 1390 06c6 EF04     		.2byte	0x4ef
 1391 06c8 7C050000 		.4byte	0x57c
 1392 06cc 18       		.byte	0x18
 1393 06cd 15       		.uleb128 0x15
 1394 06ce C2030000 		.4byte	.LASF97
 1395 06d2 0C       		.byte	0xc
 1396 06d3 F004     		.2byte	0x4f0
 1397 06d5 AD000000 		.4byte	0xad
 1398 06d9 1A       		.byte	0x1a
 1399 06da 00       		.byte	0
 1400 06db 16       		.uleb128 0x16
 1401 06dc AC020000 		.4byte	.LASF98
 1402 06e0 0C       		.byte	0xc
 1403 06e1 F104     		.2byte	0x4f1
 1404 06e3 1D060000 		.4byte	0x61d
 1405 06e7 11       		.uleb128 0x11
 1406 06e8 0C010000 		.4byte	0x10c
 1407 06ec 00070000 		.4byte	0x700
 1408 06f0 12       		.uleb128 0x12
 1409 06f1 9D020000 		.4byte	0x29d
 1410 06f5 12       		.uleb128 0x12
 1411 06f6 A2000000 		.4byte	0xa2
 1412 06fa 12       		.uleb128 0x12
 1413 06fb 2D010000 		.4byte	0x12d
 1414 06ff 00       		.byte	0
 1415 0700 09       		.uleb128 0x9
 1416 0701 04       		.byte	0x4
 1417 0702 E7060000 		.4byte	0x6e7
 1418 0706 11       		.uleb128 0x11
 1419 0707 0C010000 		.4byte	0x10c
 1420 070b 1A070000 		.4byte	0x71a
 1421 070f 12       		.uleb128 0x12
ARM GAS  /tmp/ccGcML5g.s 			page 26


 1422 0710 9D020000 		.4byte	0x29d
 1423 0714 12       		.uleb128 0x12
 1424 0715 2D010000 		.4byte	0x12d
 1425 0719 00       		.byte	0
 1426 071a 09       		.uleb128 0x9
 1427 071b 04       		.byte	0x4
 1428 071c 06070000 		.4byte	0x706
 1429 0720 11       		.uleb128 0x11
 1430 0721 2C000000 		.4byte	0x2c
 1431 0725 3E070000 		.4byte	0x73e
 1432 0729 12       		.uleb128 0x12
 1433 072a 9D020000 		.4byte	0x29d
 1434 072e 12       		.uleb128 0x12
 1435 072f 32050000 		.4byte	0x532
 1436 0733 12       		.uleb128 0x12
 1437 0734 2C000000 		.4byte	0x2c
 1438 0738 12       		.uleb128 0x12
 1439 0739 2D010000 		.4byte	0x12d
 1440 073d 00       		.byte	0
 1441 073e 09       		.uleb128 0x9
 1442 073f 04       		.byte	0x4
 1443 0740 20070000 		.4byte	0x720
 1444 0744 11       		.uleb128 0x11
 1445 0745 2C000000 		.4byte	0x2c
 1446 0749 62070000 		.4byte	0x762
 1447 074d 12       		.uleb128 0x12
 1448 074e 9D020000 		.4byte	0x29d
 1449 0752 12       		.uleb128 0x12
 1450 0753 FD040000 		.4byte	0x4fd
 1451 0757 12       		.uleb128 0x12
 1452 0758 2C000000 		.4byte	0x2c
 1453 075c 12       		.uleb128 0x12
 1454 075d 2D010000 		.4byte	0x12d
 1455 0761 00       		.byte	0
 1456 0762 09       		.uleb128 0x9
 1457 0763 04       		.byte	0x4
 1458 0764 44070000 		.4byte	0x744
 1459 0768 17       		.uleb128 0x17
 1460 0769 01       		.byte	0x1
 1461 076a 0D       		.byte	0xd
 1462 076b 64       		.byte	0x64
 1463 076c 83070000 		.4byte	0x783
 1464 0770 18       		.uleb128 0x18
 1465 0771 89040000 		.4byte	.LASF99
 1466 0775 00       		.sleb128 0
 1467 0776 18       		.uleb128 0x18
 1468 0777 57040000 		.4byte	.LASF100
 1469 077b 01       		.sleb128 1
 1470 077c 18       		.uleb128 0x18
 1471 077d 4A050000 		.4byte	.LASF101
 1472 0781 02       		.sleb128 2
 1473 0782 00       		.byte	0
 1474 0783 03       		.uleb128 0x3
 1475 0784 A6040000 		.4byte	.LASF102
 1476 0788 0D       		.byte	0xd
 1477 0789 68       		.byte	0x68
 1478 078a 68070000 		.4byte	0x768
ARM GAS  /tmp/ccGcML5g.s 			page 27


 1479 078e 03       		.uleb128 0x3
 1480 078f B0040000 		.4byte	.LASF103
 1481 0793 0D       		.byte	0xd
 1482 0794 6D       		.byte	0x6d
 1483 0795 99070000 		.4byte	0x799
 1484 0799 05       		.uleb128 0x5
 1485 079a B0040000 		.4byte	.LASF103
 1486 079e D8       		.byte	0xd8
 1487 079f 0D       		.byte	0xd
 1488 07a0 87       		.byte	0x87
 1489 07a1 04080000 		.4byte	0x804
 1490 07a5 07       		.uleb128 0x7
 1491 07a6 766D7400 		.ascii	"vmt\000"
 1492 07aa 0D       		.byte	0xd
 1493 07ab 89       		.byte	0x89
 1494 07ac B5080000 		.4byte	0x8b5
 1495 07b0 00       		.byte	0
 1496 07b1 06       		.uleb128 0x6
 1497 07b2 EB010000 		.4byte	.LASF104
 1498 07b6 0D       		.byte	0xd
 1499 07b7 8A       		.byte	0x8a
 1500 07b8 F6030000 		.4byte	0x3f6
 1501 07bc 04       		.byte	0x4
 1502 07bd 06       		.uleb128 0x6
 1503 07be DD000000 		.4byte	.LASF105
 1504 07c2 0D       		.byte	0xd
 1505 07c3 8A       		.byte	0x8a
 1506 07c4 83070000 		.4byte	0x783
 1507 07c8 08       		.byte	0x8
 1508 07c9 06       		.uleb128 0x6
 1509 07ca C8010000 		.4byte	.LASF106
 1510 07ce 0D       		.byte	0xd
 1511 07cf 8A       		.byte	0x8a
 1512 07d0 03050000 		.4byte	0x503
 1513 07d4 0C       		.byte	0xc
 1514 07d5 06       		.uleb128 0x6
 1515 07d6 0A020000 		.4byte	.LASF107
 1516 07da 0D       		.byte	0xd
 1517 07db 8A       		.byte	0x8a
 1518 07dc 0E050000 		.4byte	0x50e
 1519 07e0 30       		.byte	0x30
 1520 07e1 07       		.uleb128 0x7
 1521 07e2 696200   		.ascii	"ib\000"
 1522 07e5 0D       		.byte	0xd
 1523 07e6 8A       		.byte	0x8a
 1524 07e7 C0080000 		.4byte	0x8c0
 1525 07eb 54       		.byte	0x54
 1526 07ec 07       		.uleb128 0x7
 1527 07ed 6F6200   		.ascii	"ob\000"
 1528 07f0 0D       		.byte	0xd
 1529 07f1 8A       		.byte	0x8a
 1530 07f2 C0080000 		.4byte	0x8c0
 1531 07f6 94       		.byte	0x94
 1532 07f7 06       		.uleb128 0x6
 1533 07f8 9C010000 		.4byte	.LASF108
 1534 07fc 0D       		.byte	0xd
 1535 07fd 8A       		.byte	0x8a
ARM GAS  /tmp/ccGcML5g.s 			page 28


 1536 07fe D0080000 		.4byte	0x8d0
 1537 0802 D4       		.byte	0xd4
 1538 0803 00       		.byte	0
 1539 0804 08       		.uleb128 0x8
 1540 0805 0C       		.byte	0xc
 1541 0806 0E       		.byte	0xe
 1542 0807 D7       		.byte	0xd7
 1543 0808 3D080000 		.4byte	0x83d
 1544 080c 06       		.uleb128 0x6
 1545 080d EA020000 		.4byte	.LASF109
 1546 0811 0E       		.byte	0xe
 1547 0812 DB       		.byte	0xdb
 1548 0813 C3000000 		.4byte	0xc3
 1549 0817 00       		.byte	0
 1550 0818 07       		.uleb128 0x7
 1551 0819 63723100 		.ascii	"cr1\000"
 1552 081d 0E       		.byte	0xe
 1553 081e E0       		.byte	0xe0
 1554 081f AD000000 		.4byte	0xad
 1555 0823 04       		.byte	0x4
 1556 0824 07       		.uleb128 0x7
 1557 0825 63723200 		.ascii	"cr2\000"
 1558 0829 0E       		.byte	0xe
 1559 082a E4       		.byte	0xe4
 1560 082b AD000000 		.4byte	0xad
 1561 082f 06       		.byte	0x6
 1562 0830 07       		.uleb128 0x7
 1563 0831 63723300 		.ascii	"cr3\000"
 1564 0835 0E       		.byte	0xe
 1565 0836 E8       		.byte	0xe8
 1566 0837 AD000000 		.4byte	0xad
 1567 083b 08       		.byte	0x8
 1568 083c 00       		.byte	0
 1569 083d 03       		.uleb128 0x3
 1570 083e 6C030000 		.4byte	.LASF110
 1571 0842 0E       		.byte	0xe
 1572 0843 E9       		.byte	0xe9
 1573 0844 04080000 		.4byte	0x804
 1574 0848 05       		.uleb128 0x5
 1575 0849 B8010000 		.4byte	.LASF111
 1576 084d 20       		.byte	0x20
 1577 084e 0D       		.byte	0xd
 1578 084f 7C       		.byte	0x7c
 1579 0850 B5080000 		.4byte	0x8b5
 1580 0854 06       		.uleb128 0x6
 1581 0855 07030000 		.4byte	.LASF112
 1582 0859 0D       		.byte	0xd
 1583 085a 7D       		.byte	0x7d
 1584 085b 3D050000 		.4byte	0x53d
 1585 085f 00       		.byte	0
 1586 0860 06       		.uleb128 0x6
 1587 0861 E1040000 		.4byte	.LASF113
 1588 0865 0D       		.byte	0xd
 1589 0866 7D       		.byte	0x7d
 1590 0867 5C050000 		.4byte	0x55c
 1591 086b 04       		.byte	0x4
 1592 086c 07       		.uleb128 0x7
ARM GAS  /tmp/ccGcML5g.s 			page 29


 1593 086d 70757400 		.ascii	"put\000"
 1594 0871 0D       		.byte	0xd
 1595 0872 7D       		.byte	0x7d
 1596 0873 76050000 		.4byte	0x576
 1597 0877 08       		.byte	0x8
 1598 0878 07       		.uleb128 0x7
 1599 0879 67657400 		.ascii	"get\000"
 1600 087d 0D       		.byte	0xd
 1601 087e 7D       		.byte	0x7d
 1602 087f 4E040000 		.4byte	0x44e
 1603 0883 0C       		.byte	0xc
 1604 0884 06       		.uleb128 0x6
 1605 0885 0D030000 		.4byte	.LASF114
 1606 0889 0D       		.byte	0xd
 1607 088a 7D       		.byte	0x7d
 1608 088b 00070000 		.4byte	0x700
 1609 088f 10       		.byte	0x10
 1610 0890 06       		.uleb128 0x6
 1611 0891 E6010000 		.4byte	.LASF115
 1612 0895 0D       		.byte	0xd
 1613 0896 7D       		.byte	0x7d
 1614 0897 1A070000 		.4byte	0x71a
 1615 089b 14       		.byte	0x14
 1616 089c 06       		.uleb128 0x6
 1617 089d BA020000 		.4byte	.LASF116
 1618 08a1 0D       		.byte	0xd
 1619 08a2 7D       		.byte	0x7d
 1620 08a3 3E070000 		.4byte	0x73e
 1621 08a7 18       		.byte	0x18
 1622 08a8 06       		.uleb128 0x6
 1623 08a9 79000000 		.4byte	.LASF117
 1624 08ad 0D       		.byte	0xd
 1625 08ae 7D       		.byte	0x7d
 1626 08af 62070000 		.4byte	0x762
 1627 08b3 1C       		.byte	0x1c
 1628 08b4 00       		.byte	0
 1629 08b5 09       		.uleb128 0x9
 1630 08b6 04       		.byte	0x4
 1631 08b7 BB080000 		.4byte	0x8bb
 1632 08bb 10       		.uleb128 0x10
 1633 08bc 48080000 		.4byte	0x848
 1634 08c0 19       		.uleb128 0x19
 1635 08c1 A2000000 		.4byte	0xa2
 1636 08c5 D0080000 		.4byte	0x8d0
 1637 08c9 1A       		.uleb128 0x1a
 1638 08ca 41030000 		.4byte	0x341
 1639 08ce 3F       		.byte	0x3f
 1640 08cf 00       		.byte	0
 1641 08d0 09       		.uleb128 0x9
 1642 08d1 04       		.byte	0x4
 1643 08d2 DB060000 		.4byte	0x6db
 1644 08d6 1B       		.uleb128 0x1b
 1645 08d7 12030000 		.4byte	.LASF119
 1646 08db 01       		.byte	0x1
 1647 08dc 5C       		.byte	0x5c
 1648 08dd 01       		.byte	0x1
 1649 08de 02090000 		.4byte	0x902
ARM GAS  /tmp/ccGcML5g.s 			page 30


 1650 08e2 1C       		.uleb128 0x1c
 1651 08e3 73647000 		.ascii	"sdp\000"
 1652 08e7 01       		.byte	0x1
 1653 08e8 5C       		.byte	0x5c
 1654 08e9 02090000 		.4byte	0x902
 1655 08ed 1D       		.uleb128 0x1d
 1656 08ee FB040000 		.4byte	.LASF118
 1657 08f2 01       		.byte	0x1
 1658 08f3 5C       		.byte	0x5c
 1659 08f4 08090000 		.4byte	0x908
 1660 08f8 1E       		.uleb128 0x1e
 1661 08f9 7500     		.ascii	"u\000"
 1662 08fb 01       		.byte	0x1
 1663 08fc 5D       		.byte	0x5d
 1664 08fd D0080000 		.4byte	0x8d0
 1665 0901 00       		.byte	0
 1666 0902 09       		.uleb128 0x9
 1667 0903 04       		.byte	0x4
 1668 0904 8E070000 		.4byte	0x78e
 1669 0908 09       		.uleb128 0x9
 1670 0909 04       		.byte	0x4
 1671 090a 0E090000 		.4byte	0x90e
 1672 090e 10       		.uleb128 0x10
 1673 090f 3D080000 		.4byte	0x83d
 1674 0913 1B       		.uleb128 0x1b
 1675 0914 83010000 		.4byte	.LASF120
 1676 0918 01       		.byte	0x1
 1677 0919 7A       		.byte	0x7a
 1678 091a 01       		.byte	0x1
 1679 091b 29090000 		.4byte	0x929
 1680 091f 1C       		.uleb128 0x1c
 1681 0920 7500     		.ascii	"u\000"
 1682 0922 01       		.byte	0x1
 1683 0923 7A       		.byte	0x7a
 1684 0924 D0080000 		.4byte	0x8d0
 1685 0928 00       		.byte	0
 1686 0929 1B       		.uleb128 0x1b
 1687 092a 6E040000 		.4byte	.LASF121
 1688 092e 01       		.byte	0x1
 1689 092f 9A       		.byte	0x9a
 1690 0930 01       		.byte	0x1
 1691 0931 EE090000 		.4byte	0x9ee
 1692 0935 1C       		.uleb128 0x1c
 1693 0936 73647000 		.ascii	"sdp\000"
 1694 093a 01       		.byte	0x1
 1695 093b 9A       		.byte	0x9a
 1696 093c 02090000 		.4byte	0x902
 1697 0940 1E       		.uleb128 0x1e
 1698 0941 7500     		.ascii	"u\000"
 1699 0943 01       		.byte	0x1
 1700 0944 9B       		.byte	0x9b
 1701 0945 D0080000 		.4byte	0x8d0
 1702 0949 1E       		.uleb128 0x1e
 1703 094a 63723100 		.ascii	"cr1\000"
 1704 094e 01       		.byte	0x1
 1705 094f 9C       		.byte	0x9c
 1706 0950 AD000000 		.4byte	0xad
ARM GAS  /tmp/ccGcML5g.s 			page 31


 1707 0954 1E       		.uleb128 0x1e
 1708 0955 737200   		.ascii	"sr\000"
 1709 0958 01       		.byte	0x1
 1710 0959 9D       		.byte	0x9d
 1711 095a AD000000 		.4byte	0xad
 1712 095e 1F       		.uleb128 0x1f
 1713 095f 6F090000 		.4byte	0x96f
 1714 0963 1E       		.uleb128 0x1e
 1715 0964 746D7000 		.ascii	"tmp\000"
 1716 0968 01       		.byte	0x1
 1717 0969 A1       		.byte	0xa1
 1718 096a C3000000 		.4byte	0xc3
 1719 096e 00       		.byte	0
 1720 096f 1F       		.uleb128 0x1f
 1721 0970 80090000 		.4byte	0x980
 1722 0974 1E       		.uleb128 0x1e
 1723 0975 746D7000 		.ascii	"tmp\000"
 1724 0979 01       		.byte	0x1
 1725 097a A3       		.byte	0xa3
 1726 097b C3000000 		.4byte	0xc3
 1727 097f 00       		.byte	0
 1728 0980 1F       		.uleb128 0x1f
 1729 0981 91090000 		.4byte	0x991
 1730 0985 1E       		.uleb128 0x1e
 1731 0986 746D7000 		.ascii	"tmp\000"
 1732 098a 01       		.byte	0x1
 1733 098b A8       		.byte	0xa8
 1734 098c C3000000 		.4byte	0xc3
 1735 0990 00       		.byte	0
 1736 0991 1F       		.uleb128 0x1f
 1737 0992 A2090000 		.4byte	0x9a2
 1738 0996 1E       		.uleb128 0x1e
 1739 0997 746D7000 		.ascii	"tmp\000"
 1740 099b 01       		.byte	0x1
 1741 099c B0       		.byte	0xb0
 1742 099d C3000000 		.4byte	0xc3
 1743 09a1 00       		.byte	0
 1744 09a2 1F       		.uleb128 0x1f
 1745 09a3 CF090000 		.4byte	0x9cf
 1746 09a7 1E       		.uleb128 0x1e
 1747 09a8 6200     		.ascii	"b\000"
 1748 09aa 01       		.byte	0x1
 1749 09ab B4       		.byte	0xb4
 1750 09ac 0C010000 		.4byte	0x10c
 1751 09b0 1F       		.uleb128 0x1f
 1752 09b1 C1090000 		.4byte	0x9c1
 1753 09b5 1E       		.uleb128 0x1e
 1754 09b6 746D7000 		.ascii	"tmp\000"
 1755 09ba 01       		.byte	0x1
 1756 09bb B5       		.byte	0xb5
 1757 09bc C3000000 		.4byte	0xc3
 1758 09c0 00       		.byte	0
 1759 09c1 20       		.uleb128 0x20
 1760 09c2 1E       		.uleb128 0x1e
 1761 09c3 746D7000 		.ascii	"tmp\000"
 1762 09c7 01       		.byte	0x1
 1763 09c8 BD       		.byte	0xbd
ARM GAS  /tmp/ccGcML5g.s 			page 32


 1764 09c9 C3000000 		.4byte	0xc3
 1765 09cd 00       		.byte	0
 1766 09ce 00       		.byte	0
 1767 09cf 1F       		.uleb128 0x1f
 1768 09d0 E0090000 		.4byte	0x9e0
 1769 09d4 1E       		.uleb128 0x1e
 1770 09d5 746D7000 		.ascii	"tmp\000"
 1771 09d9 01       		.byte	0x1
 1772 09da C2       		.byte	0xc2
 1773 09db C3000000 		.4byte	0xc3
 1774 09df 00       		.byte	0
 1775 09e0 20       		.uleb128 0x20
 1776 09e1 1E       		.uleb128 0x1e
 1777 09e2 746D7000 		.ascii	"tmp\000"
 1778 09e6 01       		.byte	0x1
 1779 09e7 C4       		.byte	0xc4
 1780 09e8 C3000000 		.4byte	0xc3
 1781 09ec 00       		.byte	0
 1782 09ed 00       		.byte	0
 1783 09ee 21       		.uleb128 0x21
 1784 09ef 79030000 		.4byte	.LASF135
 1785 09f3 01       		.byte	0x1
 1786 09f4 CB       		.byte	0xcb
 1787 09f5 00000000 		.4byte	.LFB67
 1788 09f9 14000000 		.4byte	.LFE67-.LFB67
 1789 09fd 01       		.uleb128 0x1
 1790 09fe 9C       		.byte	0x9c
 1791 09ff 100A0000 		.4byte	0xa10
 1792 0a03 22       		.uleb128 0x22
 1793 0a04 717000   		.ascii	"qp\000"
 1794 0a07 01       		.byte	0x1
 1795 0a08 CB       		.byte	0xcb
 1796 0a09 F7040000 		.4byte	0x4f7
 1797 0a0d 01       		.uleb128 0x1
 1798 0a0e 50       		.byte	0x50
 1799 0a0f 00       		.byte	0
 1800 0a10 1B       		.uleb128 0x1b
 1801 0a11 24000000 		.4byte	.LASF122
 1802 0a15 01       		.byte	0x1
 1803 0a16 87       		.byte	0x87
 1804 0a17 01       		.byte	0x1
 1805 0a18 3D0A0000 		.4byte	0xa3d
 1806 0a1c 1C       		.uleb128 0x1c
 1807 0a1d 73647000 		.ascii	"sdp\000"
 1808 0a21 01       		.byte	0x1
 1809 0a22 87       		.byte	0x87
 1810 0a23 02090000 		.4byte	0x902
 1811 0a27 1C       		.uleb128 0x1c
 1812 0a28 737200   		.ascii	"sr\000"
 1813 0a2b 01       		.byte	0x1
 1814 0a2c 87       		.byte	0x87
 1815 0a2d AD000000 		.4byte	0xad
 1816 0a31 1E       		.uleb128 0x1e
 1817 0a32 73747300 		.ascii	"sts\000"
 1818 0a36 01       		.byte	0x1
 1819 0a37 88       		.byte	0x88
 1820 0a38 22010000 		.4byte	0x122
ARM GAS  /tmp/ccGcML5g.s 			page 33


 1821 0a3c 00       		.byte	0
 1822 0a3d 23       		.uleb128 0x23
 1823 0a3e E1020000 		.4byte	.LASF123
 1824 0a42 01       		.byte	0x1
 1825 0a43 0701     		.2byte	0x107
 1826 0a45 00000000 		.4byte	.LFB68
 1827 0a49 04010000 		.4byte	.LFE68-.LFB68
 1828 0a4d 01       		.uleb128 0x1
 1829 0a4e 9C       		.byte	0x9c
 1830 0a4f 260C0000 		.4byte	0xc26
 1831 0a53 24       		.uleb128 0x24
 1832 0a54 29090000 		.4byte	0x929
 1833 0a58 00000000 		.4byte	.LBB28
 1834 0a5c 00000000 		.4byte	.Ldebug_ranges0+0
 1835 0a60 01       		.byte	0x1
 1836 0a61 0B01     		.2byte	0x10b
 1837 0a63 1C0C0000 		.4byte	0xc1c
 1838 0a67 25       		.uleb128 0x25
 1839 0a68 35090000 		.4byte	0x935
 1840 0a6c 06       		.uleb128 0x6
 1841 0a6d 03       		.byte	0x3
 1842 0a6e 00000000 		.4byte	SD1
 1843 0a72 9F       		.byte	0x9f
 1844 0a73 26       		.uleb128 0x26
 1845 0a74 00000000 		.4byte	.Ldebug_ranges0+0
 1846 0a78 27       		.uleb128 0x27
 1847 0a79 40090000 		.4byte	0x940
 1848 0a7d 00000000 		.4byte	.LLST0
 1849 0a81 27       		.uleb128 0x27
 1850 0a82 49090000 		.4byte	0x949
 1851 0a86 1E000000 		.4byte	.LLST1
 1852 0a8a 27       		.uleb128 0x27
 1853 0a8b 54090000 		.4byte	0x954
 1854 0a8f 3C000000 		.4byte	.LLST2
 1855 0a93 28       		.uleb128 0x28
 1856 0a94 1A000000 		.4byte	.LBB30
 1857 0a98 06000000 		.4byte	.LBE30-.LBB30
 1858 0a9c A80A0000 		.4byte	0xaa8
 1859 0aa0 29       		.uleb128 0x29
 1860 0aa1 85090000 		.4byte	0x985
 1861 0aa5 01       		.uleb128 0x1
 1862 0aa6 53       		.byte	0x53
 1863 0aa7 00       		.byte	0
 1864 0aa8 2A       		.uleb128 0x2a
 1865 0aa9 100A0000 		.4byte	0xa10
 1866 0aad 42000000 		.4byte	.LBB31
 1867 0ab1 2C000000 		.4byte	.LBE31-.LBB31
 1868 0ab5 01       		.byte	0x1
 1869 0ab6 AC       		.byte	0xac
 1870 0ab7 F40A0000 		.4byte	0xaf4
 1871 0abb 2B       		.uleb128 0x2b
 1872 0abc 270A0000 		.4byte	0xa27
 1873 0ac0 65000000 		.4byte	.LLST3
 1874 0ac4 2B       		.uleb128 0x2b
 1875 0ac5 1C0A0000 		.4byte	0xa1c
 1876 0ac9 78000000 		.4byte	.LLST4
 1877 0acd 2C       		.uleb128 0x2c
ARM GAS  /tmp/ccGcML5g.s 			page 34


 1878 0ace 42000000 		.4byte	.LBB32
 1879 0ad2 2C000000 		.4byte	.LBE32-.LBB32
 1880 0ad6 27       		.uleb128 0x27
 1881 0ad7 310A0000 		.4byte	0xa31
 1882 0adb 90000000 		.4byte	.LLST5
 1883 0adf 2D       		.uleb128 0x2d
 1884 0ae0 6C000000 		.4byte	.LVL15
 1885 0ae4 610D0000 		.4byte	0xd61
 1886 0ae8 2E       		.uleb128 0x2e
 1887 0ae9 01       		.uleb128 0x1
 1888 0aea 50       		.byte	0x50
 1889 0aeb 05       		.uleb128 0x5
 1890 0aec 03       		.byte	0x3
 1891 0aed 04000000 		.4byte	.LANCHOR0+4
 1892 0af1 00       		.byte	0
 1893 0af2 00       		.byte	0
 1894 0af3 00       		.byte	0
 1895 0af4 28       		.uleb128 0x28
 1896 0af5 6E000000 		.4byte	.LBB33
 1897 0af9 06000000 		.4byte	.LBE33-.LBB33
 1898 0afd 090B0000 		.4byte	0xb09
 1899 0b01 29       		.uleb128 0x29
 1900 0b02 96090000 		.4byte	0x996
 1901 0b06 01       		.uleb128 0x1
 1902 0b07 53       		.byte	0x53
 1903 0b08 00       		.byte	0
 1904 0b09 28       		.uleb128 0x28
 1905 0b0a 80000000 		.4byte	.LBB34
 1906 0b0e 06000000 		.4byte	.LBE34-.LBB34
 1907 0b12 1E0B0000 		.4byte	0xb1e
 1908 0b16 29       		.uleb128 0x29
 1909 0b17 D4090000 		.4byte	0x9d4
 1910 0b1b 01       		.uleb128 0x1
 1911 0b1c 53       		.byte	0x53
 1912 0b1d 00       		.byte	0
 1913 0b1e 28       		.uleb128 0x28
 1914 0b1f 8E000000 		.4byte	.LBB35
 1915 0b23 06000000 		.4byte	.LBE35-.LBB35
 1916 0b27 330B0000 		.4byte	0xb33
 1917 0b2b 29       		.uleb128 0x29
 1918 0b2c E1090000 		.4byte	0x9e1
 1919 0b30 01       		.uleb128 0x1
 1920 0b31 53       		.byte	0x53
 1921 0b32 00       		.byte	0
 1922 0b33 28       		.uleb128 0x28
 1923 0b34 AA000000 		.4byte	.LBB36
 1924 0b38 06000000 		.4byte	.LBE36-.LBB36
 1925 0b3c 480B0000 		.4byte	0xb48
 1926 0b40 29       		.uleb128 0x29
 1927 0b41 63090000 		.4byte	0x963
 1928 0b45 01       		.uleb128 0x1
 1929 0b46 53       		.byte	0x53
 1930 0b47 00       		.byte	0
 1931 0b48 28       		.uleb128 0x28
 1932 0b49 BA000000 		.4byte	.LBB37
 1933 0b4d 06000000 		.4byte	.LBE37-.LBB37
 1934 0b51 5D0B0000 		.4byte	0xb5d
ARM GAS  /tmp/ccGcML5g.s 			page 35


 1935 0b55 29       		.uleb128 0x29
 1936 0b56 74090000 		.4byte	0x974
 1937 0b5a 01       		.uleb128 0x1
 1938 0b5b 53       		.byte	0x53
 1939 0b5c 00       		.byte	0
 1940 0b5d 28       		.uleb128 0x28
 1941 0b5e C8000000 		.4byte	.LBB38
 1942 0b62 3C000000 		.4byte	.LBE38-.LBB38
 1943 0b66 CD0B0000 		.4byte	0xbcd
 1944 0b6a 27       		.uleb128 0x27
 1945 0b6b A7090000 		.4byte	0x9a7
 1946 0b6f AF000000 		.4byte	.LLST6
 1947 0b73 28       		.uleb128 0x28
 1948 0b74 C8000000 		.4byte	.LBB39
 1949 0b78 06000000 		.4byte	.LBE39-.LBB39
 1950 0b7c 880B0000 		.4byte	0xb88
 1951 0b80 29       		.uleb128 0x29
 1952 0b81 B5090000 		.4byte	0x9b5
 1953 0b85 01       		.uleb128 0x1
 1954 0b86 53       		.byte	0x53
 1955 0b87 00       		.byte	0
 1956 0b88 28       		.uleb128 0x28
 1957 0b89 DE000000 		.4byte	.LBB40
 1958 0b8d 08000000 		.4byte	.LBE40-.LBB40
 1959 0b91 9D0B0000 		.4byte	0xb9d
 1960 0b95 29       		.uleb128 0x29
 1961 0b96 C2090000 		.4byte	0x9c2
 1962 0b9a 01       		.uleb128 0x1
 1963 0b9b 53       		.byte	0x53
 1964 0b9c 00       		.byte	0
 1965 0b9d 2F       		.uleb128 0x2f
 1966 0b9e D4000000 		.4byte	.LVL22
 1967 0ba2 7D0D0000 		.4byte	0xd7d
 1968 0ba6 B40B0000 		.4byte	0xbb4
 1969 0baa 2E       		.uleb128 0x2e
 1970 0bab 01       		.uleb128 0x1
 1971 0bac 50       		.byte	0x50
 1972 0bad 05       		.uleb128 0x5
 1973 0bae 03       		.byte	0x3
 1974 0baf 30000000 		.4byte	.LANCHOR0+48
 1975 0bb3 00       		.byte	0
 1976 0bb4 2D       		.uleb128 0x2d
 1977 0bb5 EE000000 		.4byte	.LVL24
 1978 0bb9 610D0000 		.4byte	0xd61
 1979 0bbd 2E       		.uleb128 0x2e
 1980 0bbe 01       		.uleb128 0x1
 1981 0bbf 51       		.byte	0x51
 1982 0bc0 01       		.uleb128 0x1
 1983 0bc1 38       		.byte	0x38
 1984 0bc2 2E       		.uleb128 0x2e
 1985 0bc3 01       		.uleb128 0x1
 1986 0bc4 50       		.byte	0x50
 1987 0bc5 05       		.uleb128 0x5
 1988 0bc6 03       		.byte	0x3
 1989 0bc7 04000000 		.4byte	.LANCHOR0+4
 1990 0bcb 00       		.byte	0
 1991 0bcc 00       		.byte	0
ARM GAS  /tmp/ccGcML5g.s 			page 36


 1992 0bcd 2F       		.uleb128 0x2f
 1993 0bce 36000000 		.4byte	.LVL6
 1994 0bd2 990D0000 		.4byte	0xd99
 1995 0bd6 E40B0000 		.4byte	0xbe4
 1996 0bda 2E       		.uleb128 0x2e
 1997 0bdb 01       		.uleb128 0x1
 1998 0bdc 50       		.byte	0x50
 1999 0bdd 05       		.uleb128 0x5
 2000 0bde 03       		.byte	0x3
 2001 0bdf 00000000 		.4byte	.LANCHOR0
 2002 0be3 00       		.byte	0
 2003 0be4 2F       		.uleb128 0x2f
 2004 0be5 8E000000 		.4byte	.LVL17
 2005 0be9 610D0000 		.4byte	0xd61
 2006 0bed 000C0000 		.4byte	0xc00
 2007 0bf1 2E       		.uleb128 0x2e
 2008 0bf2 01       		.uleb128 0x1
 2009 0bf3 51       		.byte	0x51
 2010 0bf4 01       		.uleb128 0x1
 2011 0bf5 40       		.byte	0x40
 2012 0bf6 2E       		.uleb128 0x2e
 2013 0bf7 01       		.uleb128 0x1
 2014 0bf8 50       		.byte	0x50
 2015 0bf9 05       		.uleb128 0x5
 2016 0bfa 03       		.byte	0x3
 2017 0bfb 04000000 		.4byte	.LANCHOR0+4
 2018 0bff 00       		.byte	0
 2019 0c00 2D       		.uleb128 0x2d
 2020 0c01 BA000000 		.4byte	.LVL20
 2021 0c05 610D0000 		.4byte	0xd61
 2022 0c09 2E       		.uleb128 0x2e
 2023 0c0a 01       		.uleb128 0x1
 2024 0c0b 51       		.byte	0x51
 2025 0c0c 03       		.uleb128 0x3
 2026 0c0d 0A       		.byte	0xa
 2027 0c0e 0002     		.2byte	0x200
 2028 0c10 2E       		.uleb128 0x2e
 2029 0c11 01       		.uleb128 0x1
 2030 0c12 50       		.byte	0x50
 2031 0c13 05       		.uleb128 0x5
 2032 0c14 03       		.byte	0x3
 2033 0c15 04000000 		.4byte	.LANCHOR0+4
 2034 0c19 00       		.byte	0
 2035 0c1a 00       		.byte	0
 2036 0c1b 00       		.byte	0
 2037 0c1c 30       		.uleb128 0x30
 2038 0c1d AA000000 		.4byte	.LVL19
 2039 0c21 B00D0000 		.4byte	0xdb0
 2040 0c25 00       		.byte	0
 2041 0c26 23       		.uleb128 0x23
 2042 0c27 DA010000 		.4byte	.LASF124
 2043 0c2b 01       		.byte	0x1
 2044 0c2c 7901     		.2byte	0x179
 2045 0c2e 00000000 		.4byte	.LFB69
 2046 0c32 28000000 		.4byte	.LFE69-.LFB69
 2047 0c36 01       		.uleb128 0x1
 2048 0c37 9C       		.byte	0x9c
ARM GAS  /tmp/ccGcML5g.s 			page 37


 2049 0c38 5B0C0000 		.4byte	0xc5b
 2050 0c3c 2D       		.uleb128 0x2d
 2051 0c3d 1A000000 		.4byte	.LVL25
 2052 0c41 B80D0000 		.4byte	0xdb8
 2053 0c45 2E       		.uleb128 0x2e
 2054 0c46 01       		.uleb128 0x1
 2055 0c47 52       		.byte	0x52
 2056 0c48 05       		.uleb128 0x5
 2057 0c49 03       		.byte	0x3
 2058 0c4a 00000000 		.4byte	notify1
 2059 0c4e 2E       		.uleb128 0x2e
 2060 0c4f 01       		.uleb128 0x1
 2061 0c50 51       		.byte	0x51
 2062 0c51 01       		.uleb128 0x1
 2063 0c52 30       		.byte	0x30
 2064 0c53 2E       		.uleb128 0x2e
 2065 0c54 01       		.uleb128 0x1
 2066 0c55 50       		.byte	0x50
 2067 0c56 02       		.uleb128 0x2
 2068 0c57 74       		.byte	0x74
 2069 0c58 00       		.sleb128 0
 2070 0c59 00       		.byte	0
 2071 0c5a 00       		.byte	0
 2072 0c5b 23       		.uleb128 0x23
 2073 0c5c F8030000 		.4byte	.LASF125
 2074 0c60 01       		.byte	0x1
 2075 0c61 A401     		.2byte	0x1a4
 2076 0c63 00000000 		.4byte	.LFB70
 2077 0c67 80000000 		.4byte	.LFE70-.LFB70
 2078 0c6b 01       		.uleb128 0x1
 2079 0c6c 9C       		.byte	0x9c
 2080 0c6d DE0C0000 		.4byte	0xcde
 2081 0c71 31       		.uleb128 0x31
 2082 0c72 73647000 		.ascii	"sdp\000"
 2083 0c76 01       		.byte	0x1
 2084 0c77 A401     		.2byte	0x1a4
 2085 0c79 02090000 		.4byte	0x902
 2086 0c7d C2000000 		.4byte	.LLST7
 2087 0c81 32       		.uleb128 0x32
 2088 0c82 FB040000 		.4byte	.LASF118
 2089 0c86 01       		.byte	0x1
 2090 0c87 A401     		.2byte	0x1a4
 2091 0c89 08090000 		.4byte	0x908
 2092 0c8d F6000000 		.4byte	.LLST8
 2093 0c91 24       		.uleb128 0x24
 2094 0c92 D6080000 		.4byte	0x8d6
 2095 0c96 18000000 		.4byte	.LBB45
 2096 0c9a 20000000 		.4byte	.Ldebug_ranges0+0x20
 2097 0c9e 01       		.byte	0x1
 2098 0c9f D501     		.2byte	0x1d5
 2099 0ca1 C70C0000 		.4byte	0xcc7
 2100 0ca5 2B       		.uleb128 0x2b
 2101 0ca6 E2080000 		.4byte	0x8e2
 2102 0caa 3C010000 		.4byte	.LLST9
 2103 0cae 2B       		.uleb128 0x2b
 2104 0caf ED080000 		.4byte	0x8ed
 2105 0cb3 4F010000 		.4byte	.LLST10
ARM GAS  /tmp/ccGcML5g.s 			page 38


 2106 0cb7 26       		.uleb128 0x26
 2107 0cb8 20000000 		.4byte	.Ldebug_ranges0+0x20
 2108 0cbc 27       		.uleb128 0x27
 2109 0cbd F8080000 		.4byte	0x8f8
 2110 0cc1 7F010000 		.4byte	.LLST11
 2111 0cc5 00       		.byte	0
 2112 0cc6 00       		.byte	0
 2113 0cc7 2D       		.uleb128 0x2d
 2114 0cc8 7E000000 		.4byte	.LVL34
 2115 0ccc D40D0000 		.4byte	0xdd4
 2116 0cd0 2E       		.uleb128 0x2e
 2117 0cd1 01       		.uleb128 0x1
 2118 0cd2 51       		.byte	0x51
 2119 0cd3 02       		.uleb128 0x2
 2120 0cd4 08       		.byte	0x8
 2121 0cd5 C0       		.byte	0xc0
 2122 0cd6 2E       		.uleb128 0x2e
 2123 0cd7 01       		.uleb128 0x1
 2124 0cd8 50       		.byte	0x50
 2125 0cd9 02       		.uleb128 0x2
 2126 0cda 08       		.byte	0x8
 2127 0cdb 25       		.byte	0x25
 2128 0cdc 00       		.byte	0
 2129 0cdd 00       		.byte	0
 2130 0cde 23       		.uleb128 0x23
 2131 0cdf EE050000 		.4byte	.LASF126
 2132 0ce3 01       		.byte	0x1
 2133 0ce4 E101     		.2byte	0x1e1
 2134 0ce6 00000000 		.4byte	.LFB71
 2135 0cea 36000000 		.4byte	.LFE71-.LFB71
 2136 0cee 01       		.uleb128 0x1
 2137 0cef 9C       		.byte	0x9c
 2138 0cf0 330D0000 		.4byte	0xd33
 2139 0cf4 31       		.uleb128 0x31
 2140 0cf5 73647000 		.ascii	"sdp\000"
 2141 0cf9 01       		.byte	0x1
 2142 0cfa E101     		.2byte	0x1e1
 2143 0cfc 02090000 		.4byte	0x902
 2144 0d00 92010000 		.4byte	.LLST12
 2145 0d04 24       		.uleb128 0x24
 2146 0d05 13090000 		.4byte	0x913
 2147 0d09 14000000 		.4byte	.LBB49
 2148 0d0d 38000000 		.4byte	.Ldebug_ranges0+0x38
 2149 0d11 01       		.byte	0x1
 2150 0d12 E401     		.2byte	0x1e4
 2151 0d14 220D0000 		.4byte	0xd22
 2152 0d18 2B       		.uleb128 0x2b
 2153 0d19 1F090000 		.4byte	0x91f
 2154 0d1d B3010000 		.4byte	.LLST13
 2155 0d21 00       		.byte	0
 2156 0d22 33       		.uleb128 0x33
 2157 0d23 36000000 		.4byte	.LVL39
 2158 0d27 EB0D0000 		.4byte	0xdeb
 2159 0d2b 2E       		.uleb128 0x2e
 2160 0d2c 01       		.uleb128 0x1
 2161 0d2d 50       		.byte	0x50
 2162 0d2e 02       		.uleb128 0x2
ARM GAS  /tmp/ccGcML5g.s 			page 39


 2163 0d2f 08       		.byte	0x8
 2164 0d30 25       		.byte	0x25
 2165 0d31 00       		.byte	0
 2166 0d32 00       		.byte	0
 2167 0d33 34       		.uleb128 0x34
 2168 0d34 CE000000 		.4byte	.LASF136
 2169 0d38 01       		.byte	0x1
 2170 0d39 49       		.byte	0x49
 2171 0d3a 0E090000 		.4byte	0x90e
 2172 0d3e 05       		.uleb128 0x5
 2173 0d3f 03       		.byte	0x3
 2174 0d40 00000000 		.4byte	default_config
 2175 0d44 35       		.uleb128 0x35
 2176 0d45 5F000000 		.4byte	.LASF127
 2177 0d49 10       		.byte	0x10
 2178 0d4a 0706     		.2byte	0x607
 2179 0d4c 81050000 		.4byte	0x581
 2180 0d50 36       		.uleb128 0x36
 2181 0d51 53443100 		.ascii	"SD1\000"
 2182 0d55 01       		.byte	0x1
 2183 0d56 28       		.byte	0x28
 2184 0d57 8E070000 		.4byte	0x78e
 2185 0d5b 05       		.uleb128 0x5
 2186 0d5c 03       		.byte	0x3
 2187 0d5d 00000000 		.4byte	SD1
 2188 0d61 37       		.uleb128 0x37
 2189 0d62 52010000 		.4byte	.LASF128
 2190 0d66 0A       		.byte	0xa
 2191 0d67 BA       		.byte	0xba
 2192 0d68 770D0000 		.4byte	0xd77
 2193 0d6c 12       		.uleb128 0x12
 2194 0d6d 770D0000 		.4byte	0xd77
 2195 0d71 12       		.uleb128 0x12
 2196 0d72 22010000 		.4byte	0x122
 2197 0d76 00       		.byte	0
 2198 0d77 09       		.uleb128 0x9
 2199 0d78 04       		.byte	0x4
 2200 0d79 F6030000 		.4byte	0x3f6
 2201 0d7d 38       		.uleb128 0x38
 2202 0d7e 45030000 		.4byte	.LASF137
 2203 0d82 0B       		.byte	0xb
 2204 0d83 6E01     		.2byte	0x16e
 2205 0d85 0C010000 		.4byte	0x10c
 2206 0d89 930D0000 		.4byte	0xd93
 2207 0d8d 12       		.uleb128 0x12
 2208 0d8e 930D0000 		.4byte	0xd93
 2209 0d92 00       		.byte	0
 2210 0d93 09       		.uleb128 0x9
 2211 0d94 04       		.byte	0x4
 2212 0d95 0E050000 		.4byte	0x50e
 2213 0d99 39       		.uleb128 0x39
 2214 0d9a EB040000 		.4byte	.LASF129
 2215 0d9e 0D       		.byte	0xd
 2216 0d9f 3901     		.2byte	0x139
 2217 0da1 B00D0000 		.4byte	0xdb0
 2218 0da5 12       		.uleb128 0x12
 2219 0da6 02090000 		.4byte	0x902
ARM GAS  /tmp/ccGcML5g.s 			page 40


 2220 0daa 12       		.uleb128 0x12
 2221 0dab A2000000 		.4byte	0xa2
 2222 0daf 00       		.byte	0
 2223 0db0 3A       		.uleb128 0x3a
 2224 0db1 99020000 		.4byte	.LASF138
 2225 0db5 08       		.byte	0x8
 2226 0db6 0302     		.2byte	0x203
 2227 0db8 39       		.uleb128 0x39
 2228 0db9 6C000000 		.4byte	.LASF130
 2229 0dbd 0D       		.byte	0xd
 2230 0dbe 3601     		.2byte	0x136
 2231 0dc0 D40D0000 		.4byte	0xdd4
 2232 0dc4 12       		.uleb128 0x12
 2233 0dc5 02090000 		.4byte	0x902
 2234 0dc9 12       		.uleb128 0x12
 2235 0dca DB040000 		.4byte	0x4db
 2236 0dce 12       		.uleb128 0x12
 2237 0dcf DB040000 		.4byte	0x4db
 2238 0dd3 00       		.byte	0
 2239 0dd4 39       		.uleb128 0x39
 2240 0dd5 2E000000 		.4byte	.LASF131
 2241 0dd9 0F       		.byte	0xf
 2242 0dda 2301     		.2byte	0x123
 2243 0ddc EB0D0000 		.4byte	0xdeb
 2244 0de0 12       		.uleb128 0x12
 2245 0de1 C3000000 		.4byte	0xc3
 2246 0de5 12       		.uleb128 0x12
 2247 0de6 C3000000 		.4byte	0xc3
 2248 0dea 00       		.byte	0
 2249 0deb 3B       		.uleb128 0x3b
 2250 0dec BD040000 		.4byte	.LASF139
 2251 0df0 0F       		.byte	0xf
 2252 0df1 2401     		.2byte	0x124
 2253 0df3 12       		.uleb128 0x12
 2254 0df4 C3000000 		.4byte	0xc3
 2255 0df8 00       		.byte	0
 2256 0df9 00       		.byte	0
 2257              		.section	.debug_abbrev,"",%progbits
 2258              	.Ldebug_abbrev0:
 2259 0000 01       		.uleb128 0x1
 2260 0001 11       		.uleb128 0x11
 2261 0002 01       		.byte	0x1
 2262 0003 25       		.uleb128 0x25
 2263 0004 0E       		.uleb128 0xe
 2264 0005 13       		.uleb128 0x13
 2265 0006 0B       		.uleb128 0xb
 2266 0007 03       		.uleb128 0x3
 2267 0008 0E       		.uleb128 0xe
 2268 0009 1B       		.uleb128 0x1b
 2269 000a 0E       		.uleb128 0xe
 2270 000b 55       		.uleb128 0x55
 2271 000c 17       		.uleb128 0x17
 2272 000d 11       		.uleb128 0x11
 2273 000e 01       		.uleb128 0x1
 2274 000f 10       		.uleb128 0x10
 2275 0010 17       		.uleb128 0x17
 2276 0011 00       		.byte	0
ARM GAS  /tmp/ccGcML5g.s 			page 41


 2277 0012 00       		.byte	0
 2278 0013 02       		.uleb128 0x2
 2279 0014 24       		.uleb128 0x24
 2280 0015 00       		.byte	0
 2281 0016 0B       		.uleb128 0xb
 2282 0017 0B       		.uleb128 0xb
 2283 0018 3E       		.uleb128 0x3e
 2284 0019 0B       		.uleb128 0xb
 2285 001a 03       		.uleb128 0x3
 2286 001b 08       		.uleb128 0x8
 2287 001c 00       		.byte	0
 2288 001d 00       		.byte	0
 2289 001e 03       		.uleb128 0x3
 2290 001f 16       		.uleb128 0x16
 2291 0020 00       		.byte	0
 2292 0021 03       		.uleb128 0x3
 2293 0022 0E       		.uleb128 0xe
 2294 0023 3A       		.uleb128 0x3a
 2295 0024 0B       		.uleb128 0xb
 2296 0025 3B       		.uleb128 0x3b
 2297 0026 0B       		.uleb128 0xb
 2298 0027 49       		.uleb128 0x49
 2299 0028 13       		.uleb128 0x13
 2300 0029 00       		.byte	0
 2301 002a 00       		.byte	0
 2302 002b 04       		.uleb128 0x4
 2303 002c 24       		.uleb128 0x24
 2304 002d 00       		.byte	0
 2305 002e 0B       		.uleb128 0xb
 2306 002f 0B       		.uleb128 0xb
 2307 0030 3E       		.uleb128 0x3e
 2308 0031 0B       		.uleb128 0xb
 2309 0032 03       		.uleb128 0x3
 2310 0033 0E       		.uleb128 0xe
 2311 0034 00       		.byte	0
 2312 0035 00       		.byte	0
 2313 0036 05       		.uleb128 0x5
 2314 0037 13       		.uleb128 0x13
 2315 0038 01       		.byte	0x1
 2316 0039 03       		.uleb128 0x3
 2317 003a 0E       		.uleb128 0xe
 2318 003b 0B       		.uleb128 0xb
 2319 003c 0B       		.uleb128 0xb
 2320 003d 3A       		.uleb128 0x3a
 2321 003e 0B       		.uleb128 0xb
 2322 003f 3B       		.uleb128 0x3b
 2323 0040 0B       		.uleb128 0xb
 2324 0041 01       		.uleb128 0x1
 2325 0042 13       		.uleb128 0x13
 2326 0043 00       		.byte	0
 2327 0044 00       		.byte	0
 2328 0045 06       		.uleb128 0x6
 2329 0046 0D       		.uleb128 0xd
 2330 0047 00       		.byte	0
 2331 0048 03       		.uleb128 0x3
 2332 0049 0E       		.uleb128 0xe
 2333 004a 3A       		.uleb128 0x3a
ARM GAS  /tmp/ccGcML5g.s 			page 42


 2334 004b 0B       		.uleb128 0xb
 2335 004c 3B       		.uleb128 0x3b
 2336 004d 0B       		.uleb128 0xb
 2337 004e 49       		.uleb128 0x49
 2338 004f 13       		.uleb128 0x13
 2339 0050 38       		.uleb128 0x38
 2340 0051 0B       		.uleb128 0xb
 2341 0052 00       		.byte	0
 2342 0053 00       		.byte	0
 2343 0054 07       		.uleb128 0x7
 2344 0055 0D       		.uleb128 0xd
 2345 0056 00       		.byte	0
 2346 0057 03       		.uleb128 0x3
 2347 0058 08       		.uleb128 0x8
 2348 0059 3A       		.uleb128 0x3a
 2349 005a 0B       		.uleb128 0xb
 2350 005b 3B       		.uleb128 0x3b
 2351 005c 0B       		.uleb128 0xb
 2352 005d 49       		.uleb128 0x49
 2353 005e 13       		.uleb128 0x13
 2354 005f 38       		.uleb128 0x38
 2355 0060 0B       		.uleb128 0xb
 2356 0061 00       		.byte	0
 2357 0062 00       		.byte	0
 2358 0063 08       		.uleb128 0x8
 2359 0064 13       		.uleb128 0x13
 2360 0065 01       		.byte	0x1
 2361 0066 0B       		.uleb128 0xb
 2362 0067 0B       		.uleb128 0xb
 2363 0068 3A       		.uleb128 0x3a
 2364 0069 0B       		.uleb128 0xb
 2365 006a 3B       		.uleb128 0x3b
 2366 006b 0B       		.uleb128 0xb
 2367 006c 01       		.uleb128 0x1
 2368 006d 13       		.uleb128 0x13
 2369 006e 00       		.byte	0
 2370 006f 00       		.byte	0
 2371 0070 09       		.uleb128 0x9
 2372 0071 0F       		.uleb128 0xf
 2373 0072 00       		.byte	0
 2374 0073 0B       		.uleb128 0xb
 2375 0074 0B       		.uleb128 0xb
 2376 0075 49       		.uleb128 0x49
 2377 0076 13       		.uleb128 0x13
 2378 0077 00       		.byte	0
 2379 0078 00       		.byte	0
 2380 0079 0A       		.uleb128 0xa
 2381 007a 0F       		.uleb128 0xf
 2382 007b 00       		.byte	0
 2383 007c 0B       		.uleb128 0xb
 2384 007d 0B       		.uleb128 0xb
 2385 007e 00       		.byte	0
 2386 007f 00       		.byte	0
 2387 0080 0B       		.uleb128 0xb
 2388 0081 13       		.uleb128 0x13
 2389 0082 01       		.byte	0x1
 2390 0083 03       		.uleb128 0x3
ARM GAS  /tmp/ccGcML5g.s 			page 43


 2391 0084 0E       		.uleb128 0xe
 2392 0085 0B       		.uleb128 0xb
 2393 0086 0B       		.uleb128 0xb
 2394 0087 3A       		.uleb128 0x3a
 2395 0088 0B       		.uleb128 0xb
 2396 0089 3B       		.uleb128 0x3b
 2397 008a 05       		.uleb128 0x5
 2398 008b 01       		.uleb128 0x1
 2399 008c 13       		.uleb128 0x13
 2400 008d 00       		.byte	0
 2401 008e 00       		.byte	0
 2402 008f 0C       		.uleb128 0xc
 2403 0090 0D       		.uleb128 0xd
 2404 0091 00       		.byte	0
 2405 0092 03       		.uleb128 0x3
 2406 0093 08       		.uleb128 0x8
 2407 0094 3A       		.uleb128 0x3a
 2408 0095 0B       		.uleb128 0xb
 2409 0096 3B       		.uleb128 0x3b
 2410 0097 05       		.uleb128 0x5
 2411 0098 49       		.uleb128 0x49
 2412 0099 13       		.uleb128 0x13
 2413 009a 38       		.uleb128 0x38
 2414 009b 0B       		.uleb128 0xb
 2415 009c 00       		.byte	0
 2416 009d 00       		.byte	0
 2417 009e 0D       		.uleb128 0xd
 2418 009f 35       		.uleb128 0x35
 2419 00a0 00       		.byte	0
 2420 00a1 49       		.uleb128 0x49
 2421 00a2 13       		.uleb128 0x13
 2422 00a3 00       		.byte	0
 2423 00a4 00       		.byte	0
 2424 00a5 0E       		.uleb128 0xe
 2425 00a6 17       		.uleb128 0x17
 2426 00a7 01       		.byte	0x1
 2427 00a8 0B       		.uleb128 0xb
 2428 00a9 0B       		.uleb128 0xb
 2429 00aa 3A       		.uleb128 0x3a
 2430 00ab 0B       		.uleb128 0xb
 2431 00ac 3B       		.uleb128 0x3b
 2432 00ad 0B       		.uleb128 0xb
 2433 00ae 01       		.uleb128 0x1
 2434 00af 13       		.uleb128 0x13
 2435 00b0 00       		.byte	0
 2436 00b1 00       		.byte	0
 2437 00b2 0F       		.uleb128 0xf
 2438 00b3 0D       		.uleb128 0xd
 2439 00b4 00       		.byte	0
 2440 00b5 03       		.uleb128 0x3
 2441 00b6 0E       		.uleb128 0xe
 2442 00b7 3A       		.uleb128 0x3a
 2443 00b8 0B       		.uleb128 0xb
 2444 00b9 3B       		.uleb128 0x3b
 2445 00ba 0B       		.uleb128 0xb
 2446 00bb 49       		.uleb128 0x49
 2447 00bc 13       		.uleb128 0x13
ARM GAS  /tmp/ccGcML5g.s 			page 44


 2448 00bd 00       		.byte	0
 2449 00be 00       		.byte	0
 2450 00bf 10       		.uleb128 0x10
 2451 00c0 26       		.uleb128 0x26
 2452 00c1 00       		.byte	0
 2453 00c2 49       		.uleb128 0x49
 2454 00c3 13       		.uleb128 0x13
 2455 00c4 00       		.byte	0
 2456 00c5 00       		.byte	0
 2457 00c6 11       		.uleb128 0x11
 2458 00c7 15       		.uleb128 0x15
 2459 00c8 01       		.byte	0x1
 2460 00c9 27       		.uleb128 0x27
 2461 00ca 19       		.uleb128 0x19
 2462 00cb 49       		.uleb128 0x49
 2463 00cc 13       		.uleb128 0x13
 2464 00cd 01       		.uleb128 0x1
 2465 00ce 13       		.uleb128 0x13
 2466 00cf 00       		.byte	0
 2467 00d0 00       		.byte	0
 2468 00d1 12       		.uleb128 0x12
 2469 00d2 05       		.uleb128 0x5
 2470 00d3 00       		.byte	0
 2471 00d4 49       		.uleb128 0x49
 2472 00d5 13       		.uleb128 0x13
 2473 00d6 00       		.byte	0
 2474 00d7 00       		.byte	0
 2475 00d8 13       		.uleb128 0x13
 2476 00d9 15       		.uleb128 0x15
 2477 00da 01       		.byte	0x1
 2478 00db 27       		.uleb128 0x27
 2479 00dc 19       		.uleb128 0x19
 2480 00dd 01       		.uleb128 0x1
 2481 00de 13       		.uleb128 0x13
 2482 00df 00       		.byte	0
 2483 00e0 00       		.byte	0
 2484 00e1 14       		.uleb128 0x14
 2485 00e2 13       		.uleb128 0x13
 2486 00e3 01       		.byte	0x1
 2487 00e4 0B       		.uleb128 0xb
 2488 00e5 0B       		.uleb128 0xb
 2489 00e6 3A       		.uleb128 0x3a
 2490 00e7 0B       		.uleb128 0xb
 2491 00e8 3B       		.uleb128 0x3b
 2492 00e9 05       		.uleb128 0x5
 2493 00ea 01       		.uleb128 0x1
 2494 00eb 13       		.uleb128 0x13
 2495 00ec 00       		.byte	0
 2496 00ed 00       		.byte	0
 2497 00ee 15       		.uleb128 0x15
 2498 00ef 0D       		.uleb128 0xd
 2499 00f0 00       		.byte	0
 2500 00f1 03       		.uleb128 0x3
 2501 00f2 0E       		.uleb128 0xe
 2502 00f3 3A       		.uleb128 0x3a
 2503 00f4 0B       		.uleb128 0xb
 2504 00f5 3B       		.uleb128 0x3b
ARM GAS  /tmp/ccGcML5g.s 			page 45


 2505 00f6 05       		.uleb128 0x5
 2506 00f7 49       		.uleb128 0x49
 2507 00f8 13       		.uleb128 0x13
 2508 00f9 38       		.uleb128 0x38
 2509 00fa 0B       		.uleb128 0xb
 2510 00fb 00       		.byte	0
 2511 00fc 00       		.byte	0
 2512 00fd 16       		.uleb128 0x16
 2513 00fe 16       		.uleb128 0x16
 2514 00ff 00       		.byte	0
 2515 0100 03       		.uleb128 0x3
 2516 0101 0E       		.uleb128 0xe
 2517 0102 3A       		.uleb128 0x3a
 2518 0103 0B       		.uleb128 0xb
 2519 0104 3B       		.uleb128 0x3b
 2520 0105 05       		.uleb128 0x5
 2521 0106 49       		.uleb128 0x49
 2522 0107 13       		.uleb128 0x13
 2523 0108 00       		.byte	0
 2524 0109 00       		.byte	0
 2525 010a 17       		.uleb128 0x17
 2526 010b 04       		.uleb128 0x4
 2527 010c 01       		.byte	0x1
 2528 010d 0B       		.uleb128 0xb
 2529 010e 0B       		.uleb128 0xb
 2530 010f 3A       		.uleb128 0x3a
 2531 0110 0B       		.uleb128 0xb
 2532 0111 3B       		.uleb128 0x3b
 2533 0112 0B       		.uleb128 0xb
 2534 0113 01       		.uleb128 0x1
 2535 0114 13       		.uleb128 0x13
 2536 0115 00       		.byte	0
 2537 0116 00       		.byte	0
 2538 0117 18       		.uleb128 0x18
 2539 0118 28       		.uleb128 0x28
 2540 0119 00       		.byte	0
 2541 011a 03       		.uleb128 0x3
 2542 011b 0E       		.uleb128 0xe
 2543 011c 1C       		.uleb128 0x1c
 2544 011d 0D       		.uleb128 0xd
 2545 011e 00       		.byte	0
 2546 011f 00       		.byte	0
 2547 0120 19       		.uleb128 0x19
 2548 0121 01       		.uleb128 0x1
 2549 0122 01       		.byte	0x1
 2550 0123 49       		.uleb128 0x49
 2551 0124 13       		.uleb128 0x13
 2552 0125 01       		.uleb128 0x1
 2553 0126 13       		.uleb128 0x13
 2554 0127 00       		.byte	0
 2555 0128 00       		.byte	0
 2556 0129 1A       		.uleb128 0x1a
 2557 012a 21       		.uleb128 0x21
 2558 012b 00       		.byte	0
 2559 012c 49       		.uleb128 0x49
 2560 012d 13       		.uleb128 0x13
 2561 012e 2F       		.uleb128 0x2f
ARM GAS  /tmp/ccGcML5g.s 			page 46


 2562 012f 0B       		.uleb128 0xb
 2563 0130 00       		.byte	0
 2564 0131 00       		.byte	0
 2565 0132 1B       		.uleb128 0x1b
 2566 0133 2E       		.uleb128 0x2e
 2567 0134 01       		.byte	0x1
 2568 0135 03       		.uleb128 0x3
 2569 0136 0E       		.uleb128 0xe
 2570 0137 3A       		.uleb128 0x3a
 2571 0138 0B       		.uleb128 0xb
 2572 0139 3B       		.uleb128 0x3b
 2573 013a 0B       		.uleb128 0xb
 2574 013b 27       		.uleb128 0x27
 2575 013c 19       		.uleb128 0x19
 2576 013d 20       		.uleb128 0x20
 2577 013e 0B       		.uleb128 0xb
 2578 013f 01       		.uleb128 0x1
 2579 0140 13       		.uleb128 0x13
 2580 0141 00       		.byte	0
 2581 0142 00       		.byte	0
 2582 0143 1C       		.uleb128 0x1c
 2583 0144 05       		.uleb128 0x5
 2584 0145 00       		.byte	0
 2585 0146 03       		.uleb128 0x3
 2586 0147 08       		.uleb128 0x8
 2587 0148 3A       		.uleb128 0x3a
 2588 0149 0B       		.uleb128 0xb
 2589 014a 3B       		.uleb128 0x3b
 2590 014b 0B       		.uleb128 0xb
 2591 014c 49       		.uleb128 0x49
 2592 014d 13       		.uleb128 0x13
 2593 014e 00       		.byte	0
 2594 014f 00       		.byte	0
 2595 0150 1D       		.uleb128 0x1d
 2596 0151 05       		.uleb128 0x5
 2597 0152 00       		.byte	0
 2598 0153 03       		.uleb128 0x3
 2599 0154 0E       		.uleb128 0xe
 2600 0155 3A       		.uleb128 0x3a
 2601 0156 0B       		.uleb128 0xb
 2602 0157 3B       		.uleb128 0x3b
 2603 0158 0B       		.uleb128 0xb
 2604 0159 49       		.uleb128 0x49
 2605 015a 13       		.uleb128 0x13
 2606 015b 00       		.byte	0
 2607 015c 00       		.byte	0
 2608 015d 1E       		.uleb128 0x1e
 2609 015e 34       		.uleb128 0x34
 2610 015f 00       		.byte	0
 2611 0160 03       		.uleb128 0x3
 2612 0161 08       		.uleb128 0x8
 2613 0162 3A       		.uleb128 0x3a
 2614 0163 0B       		.uleb128 0xb
 2615 0164 3B       		.uleb128 0x3b
 2616 0165 0B       		.uleb128 0xb
 2617 0166 49       		.uleb128 0x49
 2618 0167 13       		.uleb128 0x13
ARM GAS  /tmp/ccGcML5g.s 			page 47


 2619 0168 00       		.byte	0
 2620 0169 00       		.byte	0
 2621 016a 1F       		.uleb128 0x1f
 2622 016b 0B       		.uleb128 0xb
 2623 016c 01       		.byte	0x1
 2624 016d 01       		.uleb128 0x1
 2625 016e 13       		.uleb128 0x13
 2626 016f 00       		.byte	0
 2627 0170 00       		.byte	0
 2628 0171 20       		.uleb128 0x20
 2629 0172 0B       		.uleb128 0xb
 2630 0173 01       		.byte	0x1
 2631 0174 00       		.byte	0
 2632 0175 00       		.byte	0
 2633 0176 21       		.uleb128 0x21
 2634 0177 2E       		.uleb128 0x2e
 2635 0178 01       		.byte	0x1
 2636 0179 03       		.uleb128 0x3
 2637 017a 0E       		.uleb128 0xe
 2638 017b 3A       		.uleb128 0x3a
 2639 017c 0B       		.uleb128 0xb
 2640 017d 3B       		.uleb128 0x3b
 2641 017e 0B       		.uleb128 0xb
 2642 017f 27       		.uleb128 0x27
 2643 0180 19       		.uleb128 0x19
 2644 0181 11       		.uleb128 0x11
 2645 0182 01       		.uleb128 0x1
 2646 0183 12       		.uleb128 0x12
 2647 0184 06       		.uleb128 0x6
 2648 0185 40       		.uleb128 0x40
 2649 0186 18       		.uleb128 0x18
 2650 0187 9742     		.uleb128 0x2117
 2651 0189 19       		.uleb128 0x19
 2652 018a 01       		.uleb128 0x1
 2653 018b 13       		.uleb128 0x13
 2654 018c 00       		.byte	0
 2655 018d 00       		.byte	0
 2656 018e 22       		.uleb128 0x22
 2657 018f 05       		.uleb128 0x5
 2658 0190 00       		.byte	0
 2659 0191 03       		.uleb128 0x3
 2660 0192 08       		.uleb128 0x8
 2661 0193 3A       		.uleb128 0x3a
 2662 0194 0B       		.uleb128 0xb
 2663 0195 3B       		.uleb128 0x3b
 2664 0196 0B       		.uleb128 0xb
 2665 0197 49       		.uleb128 0x49
 2666 0198 13       		.uleb128 0x13
 2667 0199 02       		.uleb128 0x2
 2668 019a 18       		.uleb128 0x18
 2669 019b 00       		.byte	0
 2670 019c 00       		.byte	0
 2671 019d 23       		.uleb128 0x23
 2672 019e 2E       		.uleb128 0x2e
 2673 019f 01       		.byte	0x1
 2674 01a0 3F       		.uleb128 0x3f
 2675 01a1 19       		.uleb128 0x19
ARM GAS  /tmp/ccGcML5g.s 			page 48


 2676 01a2 03       		.uleb128 0x3
 2677 01a3 0E       		.uleb128 0xe
 2678 01a4 3A       		.uleb128 0x3a
 2679 01a5 0B       		.uleb128 0xb
 2680 01a6 3B       		.uleb128 0x3b
 2681 01a7 05       		.uleb128 0x5
 2682 01a8 27       		.uleb128 0x27
 2683 01a9 19       		.uleb128 0x19
 2684 01aa 11       		.uleb128 0x11
 2685 01ab 01       		.uleb128 0x1
 2686 01ac 12       		.uleb128 0x12
 2687 01ad 06       		.uleb128 0x6
 2688 01ae 40       		.uleb128 0x40
 2689 01af 18       		.uleb128 0x18
 2690 01b0 9742     		.uleb128 0x2117
 2691 01b2 19       		.uleb128 0x19
 2692 01b3 01       		.uleb128 0x1
 2693 01b4 13       		.uleb128 0x13
 2694 01b5 00       		.byte	0
 2695 01b6 00       		.byte	0
 2696 01b7 24       		.uleb128 0x24
 2697 01b8 1D       		.uleb128 0x1d
 2698 01b9 01       		.byte	0x1
 2699 01ba 31       		.uleb128 0x31
 2700 01bb 13       		.uleb128 0x13
 2701 01bc 52       		.uleb128 0x52
 2702 01bd 01       		.uleb128 0x1
 2703 01be 55       		.uleb128 0x55
 2704 01bf 17       		.uleb128 0x17
 2705 01c0 58       		.uleb128 0x58
 2706 01c1 0B       		.uleb128 0xb
 2707 01c2 59       		.uleb128 0x59
 2708 01c3 05       		.uleb128 0x5
 2709 01c4 01       		.uleb128 0x1
 2710 01c5 13       		.uleb128 0x13
 2711 01c6 00       		.byte	0
 2712 01c7 00       		.byte	0
 2713 01c8 25       		.uleb128 0x25
 2714 01c9 05       		.uleb128 0x5
 2715 01ca 00       		.byte	0
 2716 01cb 31       		.uleb128 0x31
 2717 01cc 13       		.uleb128 0x13
 2718 01cd 02       		.uleb128 0x2
 2719 01ce 18       		.uleb128 0x18
 2720 01cf 00       		.byte	0
 2721 01d0 00       		.byte	0
 2722 01d1 26       		.uleb128 0x26
 2723 01d2 0B       		.uleb128 0xb
 2724 01d3 01       		.byte	0x1
 2725 01d4 55       		.uleb128 0x55
 2726 01d5 17       		.uleb128 0x17
 2727 01d6 00       		.byte	0
 2728 01d7 00       		.byte	0
 2729 01d8 27       		.uleb128 0x27
 2730 01d9 34       		.uleb128 0x34
 2731 01da 00       		.byte	0
 2732 01db 31       		.uleb128 0x31
ARM GAS  /tmp/ccGcML5g.s 			page 49


 2733 01dc 13       		.uleb128 0x13
 2734 01dd 02       		.uleb128 0x2
 2735 01de 17       		.uleb128 0x17
 2736 01df 00       		.byte	0
 2737 01e0 00       		.byte	0
 2738 01e1 28       		.uleb128 0x28
 2739 01e2 0B       		.uleb128 0xb
 2740 01e3 01       		.byte	0x1
 2741 01e4 11       		.uleb128 0x11
 2742 01e5 01       		.uleb128 0x1
 2743 01e6 12       		.uleb128 0x12
 2744 01e7 06       		.uleb128 0x6
 2745 01e8 01       		.uleb128 0x1
 2746 01e9 13       		.uleb128 0x13
 2747 01ea 00       		.byte	0
 2748 01eb 00       		.byte	0
 2749 01ec 29       		.uleb128 0x29
 2750 01ed 34       		.uleb128 0x34
 2751 01ee 00       		.byte	0
 2752 01ef 31       		.uleb128 0x31
 2753 01f0 13       		.uleb128 0x13
 2754 01f1 02       		.uleb128 0x2
 2755 01f2 18       		.uleb128 0x18
 2756 01f3 00       		.byte	0
 2757 01f4 00       		.byte	0
 2758 01f5 2A       		.uleb128 0x2a
 2759 01f6 1D       		.uleb128 0x1d
 2760 01f7 01       		.byte	0x1
 2761 01f8 31       		.uleb128 0x31
 2762 01f9 13       		.uleb128 0x13
 2763 01fa 11       		.uleb128 0x11
 2764 01fb 01       		.uleb128 0x1
 2765 01fc 12       		.uleb128 0x12
 2766 01fd 06       		.uleb128 0x6
 2767 01fe 58       		.uleb128 0x58
 2768 01ff 0B       		.uleb128 0xb
 2769 0200 59       		.uleb128 0x59
 2770 0201 0B       		.uleb128 0xb
 2771 0202 01       		.uleb128 0x1
 2772 0203 13       		.uleb128 0x13
 2773 0204 00       		.byte	0
 2774 0205 00       		.byte	0
 2775 0206 2B       		.uleb128 0x2b
 2776 0207 05       		.uleb128 0x5
 2777 0208 00       		.byte	0
 2778 0209 31       		.uleb128 0x31
 2779 020a 13       		.uleb128 0x13
 2780 020b 02       		.uleb128 0x2
 2781 020c 17       		.uleb128 0x17
 2782 020d 00       		.byte	0
 2783 020e 00       		.byte	0
 2784 020f 2C       		.uleb128 0x2c
 2785 0210 0B       		.uleb128 0xb
 2786 0211 01       		.byte	0x1
 2787 0212 11       		.uleb128 0x11
 2788 0213 01       		.uleb128 0x1
 2789 0214 12       		.uleb128 0x12
ARM GAS  /tmp/ccGcML5g.s 			page 50


 2790 0215 06       		.uleb128 0x6
 2791 0216 00       		.byte	0
 2792 0217 00       		.byte	0
 2793 0218 2D       		.uleb128 0x2d
 2794 0219 898201   		.uleb128 0x4109
 2795 021c 01       		.byte	0x1
 2796 021d 11       		.uleb128 0x11
 2797 021e 01       		.uleb128 0x1
 2798 021f 31       		.uleb128 0x31
 2799 0220 13       		.uleb128 0x13
 2800 0221 00       		.byte	0
 2801 0222 00       		.byte	0
 2802 0223 2E       		.uleb128 0x2e
 2803 0224 8A8201   		.uleb128 0x410a
 2804 0227 00       		.byte	0
 2805 0228 02       		.uleb128 0x2
 2806 0229 18       		.uleb128 0x18
 2807 022a 9142     		.uleb128 0x2111
 2808 022c 18       		.uleb128 0x18
 2809 022d 00       		.byte	0
 2810 022e 00       		.byte	0
 2811 022f 2F       		.uleb128 0x2f
 2812 0230 898201   		.uleb128 0x4109
 2813 0233 01       		.byte	0x1
 2814 0234 11       		.uleb128 0x11
 2815 0235 01       		.uleb128 0x1
 2816 0236 31       		.uleb128 0x31
 2817 0237 13       		.uleb128 0x13
 2818 0238 01       		.uleb128 0x1
 2819 0239 13       		.uleb128 0x13
 2820 023a 00       		.byte	0
 2821 023b 00       		.byte	0
 2822 023c 30       		.uleb128 0x30
 2823 023d 898201   		.uleb128 0x4109
 2824 0240 00       		.byte	0
 2825 0241 11       		.uleb128 0x11
 2826 0242 01       		.uleb128 0x1
 2827 0243 9542     		.uleb128 0x2115
 2828 0245 19       		.uleb128 0x19
 2829 0246 31       		.uleb128 0x31
 2830 0247 13       		.uleb128 0x13
 2831 0248 00       		.byte	0
 2832 0249 00       		.byte	0
 2833 024a 31       		.uleb128 0x31
 2834 024b 05       		.uleb128 0x5
 2835 024c 00       		.byte	0
 2836 024d 03       		.uleb128 0x3
 2837 024e 08       		.uleb128 0x8
 2838 024f 3A       		.uleb128 0x3a
 2839 0250 0B       		.uleb128 0xb
 2840 0251 3B       		.uleb128 0x3b
 2841 0252 05       		.uleb128 0x5
 2842 0253 49       		.uleb128 0x49
 2843 0254 13       		.uleb128 0x13
 2844 0255 02       		.uleb128 0x2
 2845 0256 17       		.uleb128 0x17
 2846 0257 00       		.byte	0
ARM GAS  /tmp/ccGcML5g.s 			page 51


 2847 0258 00       		.byte	0
 2848 0259 32       		.uleb128 0x32
 2849 025a 05       		.uleb128 0x5
 2850 025b 00       		.byte	0
 2851 025c 03       		.uleb128 0x3
 2852 025d 0E       		.uleb128 0xe
 2853 025e 3A       		.uleb128 0x3a
 2854 025f 0B       		.uleb128 0xb
 2855 0260 3B       		.uleb128 0x3b
 2856 0261 05       		.uleb128 0x5
 2857 0262 49       		.uleb128 0x49
 2858 0263 13       		.uleb128 0x13
 2859 0264 02       		.uleb128 0x2
 2860 0265 17       		.uleb128 0x17
 2861 0266 00       		.byte	0
 2862 0267 00       		.byte	0
 2863 0268 33       		.uleb128 0x33
 2864 0269 898201   		.uleb128 0x4109
 2865 026c 01       		.byte	0x1
 2866 026d 11       		.uleb128 0x11
 2867 026e 01       		.uleb128 0x1
 2868 026f 9542     		.uleb128 0x2115
 2869 0271 19       		.uleb128 0x19
 2870 0272 31       		.uleb128 0x31
 2871 0273 13       		.uleb128 0x13
 2872 0274 00       		.byte	0
 2873 0275 00       		.byte	0
 2874 0276 34       		.uleb128 0x34
 2875 0277 34       		.uleb128 0x34
 2876 0278 00       		.byte	0
 2877 0279 03       		.uleb128 0x3
 2878 027a 0E       		.uleb128 0xe
 2879 027b 3A       		.uleb128 0x3a
 2880 027c 0B       		.uleb128 0xb
 2881 027d 3B       		.uleb128 0x3b
 2882 027e 0B       		.uleb128 0xb
 2883 027f 49       		.uleb128 0x49
 2884 0280 13       		.uleb128 0x13
 2885 0281 02       		.uleb128 0x2
 2886 0282 18       		.uleb128 0x18
 2887 0283 00       		.byte	0
 2888 0284 00       		.byte	0
 2889 0285 35       		.uleb128 0x35
 2890 0286 34       		.uleb128 0x34
 2891 0287 00       		.byte	0
 2892 0288 03       		.uleb128 0x3
 2893 0289 0E       		.uleb128 0xe
 2894 028a 3A       		.uleb128 0x3a
 2895 028b 0B       		.uleb128 0xb
 2896 028c 3B       		.uleb128 0x3b
 2897 028d 05       		.uleb128 0x5
 2898 028e 49       		.uleb128 0x49
 2899 028f 13       		.uleb128 0x13
 2900 0290 3F       		.uleb128 0x3f
 2901 0291 19       		.uleb128 0x19
 2902 0292 3C       		.uleb128 0x3c
 2903 0293 19       		.uleb128 0x19
ARM GAS  /tmp/ccGcML5g.s 			page 52


 2904 0294 00       		.byte	0
 2905 0295 00       		.byte	0
 2906 0296 36       		.uleb128 0x36
 2907 0297 34       		.uleb128 0x34
 2908 0298 00       		.byte	0
 2909 0299 03       		.uleb128 0x3
 2910 029a 08       		.uleb128 0x8
 2911 029b 3A       		.uleb128 0x3a
 2912 029c 0B       		.uleb128 0xb
 2913 029d 3B       		.uleb128 0x3b
 2914 029e 0B       		.uleb128 0xb
 2915 029f 49       		.uleb128 0x49
 2916 02a0 13       		.uleb128 0x13
 2917 02a1 3F       		.uleb128 0x3f
 2918 02a2 19       		.uleb128 0x19
 2919 02a3 02       		.uleb128 0x2
 2920 02a4 18       		.uleb128 0x18
 2921 02a5 00       		.byte	0
 2922 02a6 00       		.byte	0
 2923 02a7 37       		.uleb128 0x37
 2924 02a8 2E       		.uleb128 0x2e
 2925 02a9 01       		.byte	0x1
 2926 02aa 3F       		.uleb128 0x3f
 2927 02ab 19       		.uleb128 0x19
 2928 02ac 03       		.uleb128 0x3
 2929 02ad 0E       		.uleb128 0xe
 2930 02ae 3A       		.uleb128 0x3a
 2931 02af 0B       		.uleb128 0xb
 2932 02b0 3B       		.uleb128 0x3b
 2933 02b1 0B       		.uleb128 0xb
 2934 02b2 27       		.uleb128 0x27
 2935 02b3 19       		.uleb128 0x19
 2936 02b4 3C       		.uleb128 0x3c
 2937 02b5 19       		.uleb128 0x19
 2938 02b6 01       		.uleb128 0x1
 2939 02b7 13       		.uleb128 0x13
 2940 02b8 00       		.byte	0
 2941 02b9 00       		.byte	0
 2942 02ba 38       		.uleb128 0x38
 2943 02bb 2E       		.uleb128 0x2e
 2944 02bc 01       		.byte	0x1
 2945 02bd 3F       		.uleb128 0x3f
 2946 02be 19       		.uleb128 0x19
 2947 02bf 03       		.uleb128 0x3
 2948 02c0 0E       		.uleb128 0xe
 2949 02c1 3A       		.uleb128 0x3a
 2950 02c2 0B       		.uleb128 0xb
 2951 02c3 3B       		.uleb128 0x3b
 2952 02c4 05       		.uleb128 0x5
 2953 02c5 27       		.uleb128 0x27
 2954 02c6 19       		.uleb128 0x19
 2955 02c7 49       		.uleb128 0x49
 2956 02c8 13       		.uleb128 0x13
 2957 02c9 3C       		.uleb128 0x3c
 2958 02ca 19       		.uleb128 0x19
 2959 02cb 01       		.uleb128 0x1
 2960 02cc 13       		.uleb128 0x13
ARM GAS  /tmp/ccGcML5g.s 			page 53


 2961 02cd 00       		.byte	0
 2962 02ce 00       		.byte	0
 2963 02cf 39       		.uleb128 0x39
 2964 02d0 2E       		.uleb128 0x2e
 2965 02d1 01       		.byte	0x1
 2966 02d2 3F       		.uleb128 0x3f
 2967 02d3 19       		.uleb128 0x19
 2968 02d4 03       		.uleb128 0x3
 2969 02d5 0E       		.uleb128 0xe
 2970 02d6 3A       		.uleb128 0x3a
 2971 02d7 0B       		.uleb128 0xb
 2972 02d8 3B       		.uleb128 0x3b
 2973 02d9 05       		.uleb128 0x5
 2974 02da 27       		.uleb128 0x27
 2975 02db 19       		.uleb128 0x19
 2976 02dc 3C       		.uleb128 0x3c
 2977 02dd 19       		.uleb128 0x19
 2978 02de 01       		.uleb128 0x1
 2979 02df 13       		.uleb128 0x13
 2980 02e0 00       		.byte	0
 2981 02e1 00       		.byte	0
 2982 02e2 3A       		.uleb128 0x3a
 2983 02e3 2E       		.uleb128 0x2e
 2984 02e4 00       		.byte	0
 2985 02e5 3F       		.uleb128 0x3f
 2986 02e6 19       		.uleb128 0x19
 2987 02e7 03       		.uleb128 0x3
 2988 02e8 0E       		.uleb128 0xe
 2989 02e9 3A       		.uleb128 0x3a
 2990 02ea 0B       		.uleb128 0xb
 2991 02eb 3B       		.uleb128 0x3b
 2992 02ec 05       		.uleb128 0x5
 2993 02ed 27       		.uleb128 0x27
 2994 02ee 19       		.uleb128 0x19
 2995 02ef 3C       		.uleb128 0x3c
 2996 02f0 19       		.uleb128 0x19
 2997 02f1 00       		.byte	0
 2998 02f2 00       		.byte	0
 2999 02f3 3B       		.uleb128 0x3b
 3000 02f4 2E       		.uleb128 0x2e
 3001 02f5 01       		.byte	0x1
 3002 02f6 3F       		.uleb128 0x3f
 3003 02f7 19       		.uleb128 0x19
 3004 02f8 03       		.uleb128 0x3
 3005 02f9 0E       		.uleb128 0xe
 3006 02fa 3A       		.uleb128 0x3a
 3007 02fb 0B       		.uleb128 0xb
 3008 02fc 3B       		.uleb128 0x3b
 3009 02fd 05       		.uleb128 0x5
 3010 02fe 27       		.uleb128 0x27
 3011 02ff 19       		.uleb128 0x19
 3012 0300 3C       		.uleb128 0x3c
 3013 0301 19       		.uleb128 0x19
 3014 0302 00       		.byte	0
 3015 0303 00       		.byte	0
 3016 0304 00       		.byte	0
 3017              		.section	.debug_loc,"",%progbits
ARM GAS  /tmp/ccGcML5g.s 			page 54


 3018              	.Ldebug_loc0:
 3019              	.LLST0:
 3020 0000 0E000000 		.4byte	.LVL2
 3021 0004 A6000000 		.4byte	.LVL18
 3022 0008 0100     		.2byte	0x1
 3023 000a 55       		.byte	0x55
 3024 000b AA000000 		.4byte	.LVL19
 3025 000f 04010000 		.4byte	.LFE68
 3026 0013 0100     		.2byte	0x1
 3027 0015 55       		.byte	0x55
 3028 0016 00000000 		.4byte	0
 3029 001a 00000000 		.4byte	0
 3030              	.LLST1:
 3031 001e 14000000 		.4byte	.LVL3
 3032 0022 A6000000 		.4byte	.LVL18
 3033 0026 0100     		.2byte	0x1
 3034 0028 56       		.byte	0x56
 3035 0029 AA000000 		.4byte	.LVL19
 3036 002d 04010000 		.4byte	.LFE68
 3037 0031 0100     		.2byte	0x1
 3038 0033 56       		.byte	0x56
 3039 0034 00000000 		.4byte	0
 3040 0038 00000000 		.4byte	0
 3041              	.LLST2:
 3042 003c 16000000 		.4byte	.LVL4
 3043 0040 26000000 		.4byte	.LVL5
 3044 0044 0100     		.2byte	0x1
 3045 0046 54       		.byte	0x54
 3046 0047 3A000000 		.4byte	.LVL7
 3047 004b 60000000 		.4byte	.LVL13
 3048 004f 0100     		.2byte	0x1
 3049 0051 54       		.byte	0x54
 3050 0052 AA000000 		.4byte	.LVL19
 3051 0056 C8000000 		.4byte	.LVL21
 3052 005a 0100     		.2byte	0x1
 3053 005c 54       		.byte	0x54
 3054 005d 00000000 		.4byte	0
 3055 0061 00000000 		.4byte	0
 3056              	.LLST3:
 3057 0065 42000000 		.4byte	.LVL9
 3058 0069 60000000 		.4byte	.LVL13
 3059 006d 0100     		.2byte	0x1
 3060 006f 54       		.byte	0x54
 3061 0070 00000000 		.4byte	0
 3062 0074 00000000 		.4byte	0
 3063              	.LLST4:
 3064 0078 42000000 		.4byte	.LVL9
 3065 007c 6E000000 		.4byte	.LVL16
 3066 0080 0600     		.2byte	0x6
 3067 0082 03       		.byte	0x3
 3068 0083 00000000 		.4byte	SD1
 3069 0087 9F       		.byte	0x9f
 3070 0088 00000000 		.4byte	0
 3071 008c 00000000 		.4byte	0
 3072              	.LLST5:
 3073 0090 42000000 		.4byte	.LVL9
 3074 0094 4C000000 		.4byte	.LVL10
ARM GAS  /tmp/ccGcML5g.s 			page 55


 3075 0098 0200     		.2byte	0x2
 3076 009a 30       		.byte	0x30
 3077 009b 9F       		.byte	0x9f
 3078 009c 4C000000 		.4byte	.LVL10
 3079 00a0 6B000000 		.4byte	.LVL15-1
 3080 00a4 0100     		.2byte	0x1
 3081 00a6 51       		.byte	0x51
 3082 00a7 00000000 		.4byte	0
 3083 00ab 00000000 		.4byte	0
 3084              	.LLST6:
 3085 00af D4000000 		.4byte	.LVL22
 3086 00b3 DA000000 		.4byte	.LVL23
 3087 00b7 0100     		.2byte	0x1
 3088 00b9 50       		.byte	0x50
 3089 00ba 00000000 		.4byte	0
 3090 00be 00000000 		.4byte	0
 3091              	.LLST7:
 3092 00c2 00000000 		.4byte	.LVL26
 3093 00c6 18000000 		.4byte	.LVL28
 3094 00ca 0100     		.2byte	0x1
 3095 00cc 50       		.byte	0x50
 3096 00cd 18000000 		.4byte	.LVL28
 3097 00d1 5A000000 		.4byte	.LVL32
 3098 00d5 0100     		.2byte	0x1
 3099 00d7 55       		.byte	0x55
 3100 00d8 5A000000 		.4byte	.LVL32
 3101 00dc 72000000 		.4byte	.LVL33
 3102 00e0 0100     		.2byte	0x1
 3103 00e2 50       		.byte	0x50
 3104 00e3 72000000 		.4byte	.LVL33
 3105 00e7 80000000 		.4byte	.LFE70
 3106 00eb 0100     		.2byte	0x1
 3107 00ed 55       		.byte	0x55
 3108 00ee 00000000 		.4byte	0
 3109 00f2 00000000 		.4byte	0
 3110              	.LLST8:
 3111 00f6 00000000 		.4byte	.LVL26
 3112 00fa 12000000 		.4byte	.LVL27
 3113 00fe 0100     		.2byte	0x1
 3114 0100 51       		.byte	0x51
 3115 0101 12000000 		.4byte	.LVL27
 3116 0105 3C000000 		.4byte	.LVL30
 3117 0109 0100     		.2byte	0x1
 3118 010b 54       		.byte	0x54
 3119 010c 3C000000 		.4byte	.LVL30
 3120 0110 5A000000 		.4byte	.LVL32
 3121 0114 1300     		.2byte	0x13
 3122 0116 F3       		.byte	0xf3
 3123 0117 01       		.uleb128 0x1
 3124 0118 51       		.byte	0x51
 3125 0119 03       		.byte	0x3
 3126 011a 00000000 		.4byte	.LANCHOR1
 3127 011e F3       		.byte	0xf3
 3128 011f 01       		.uleb128 0x1
 3129 0120 51       		.byte	0x51
 3130 0121 30       		.byte	0x30
 3131 0122 2E       		.byte	0x2e
ARM GAS  /tmp/ccGcML5g.s 			page 56


 3132 0123 28       		.byte	0x28
 3133 0124 0100     		.2byte	0x1
 3134 0126 16       		.byte	0x16
 3135 0127 13       		.byte	0x13
 3136 0128 9F       		.byte	0x9f
 3137 0129 5A000000 		.4byte	.LVL32
 3138 012d 80000000 		.4byte	.LFE70
 3139 0131 0100     		.2byte	0x1
 3140 0133 54       		.byte	0x54
 3141 0134 00000000 		.4byte	0
 3142 0138 00000000 		.4byte	0
 3143              	.LLST9:
 3144 013c 26000000 		.4byte	.LVL29
 3145 0140 5A000000 		.4byte	.LVL32
 3146 0144 0100     		.2byte	0x1
 3147 0146 55       		.byte	0x55
 3148 0147 00000000 		.4byte	0
 3149 014b 00000000 		.4byte	0
 3150              	.LLST10:
 3151 014f 26000000 		.4byte	.LVL29
 3152 0153 3C000000 		.4byte	.LVL30
 3153 0157 0100     		.2byte	0x1
 3154 0159 54       		.byte	0x54
 3155 015a 3C000000 		.4byte	.LVL30
 3156 015e 5A000000 		.4byte	.LVL32
 3157 0162 1300     		.2byte	0x13
 3158 0164 F3       		.byte	0xf3
 3159 0165 01       		.uleb128 0x1
 3160 0166 51       		.byte	0x51
 3161 0167 03       		.byte	0x3
 3162 0168 00000000 		.4byte	.LANCHOR1
 3163 016c F3       		.byte	0xf3
 3164 016d 01       		.uleb128 0x1
 3165 016e 51       		.byte	0x51
 3166 016f 30       		.byte	0x30
 3167 0170 2E       		.byte	0x2e
 3168 0171 28       		.byte	0x28
 3169 0172 0100     		.2byte	0x1
 3170 0174 16       		.byte	0x16
 3171 0175 13       		.byte	0x13
 3172 0176 9F       		.byte	0x9f
 3173 0177 00000000 		.4byte	0
 3174 017b 00000000 		.4byte	0
 3175              	.LLST11:
 3176 017f 26000000 		.4byte	.LVL29
 3177 0183 58000000 		.4byte	.LVL31
 3178 0187 0100     		.2byte	0x1
 3179 0189 53       		.byte	0x53
 3180 018a 00000000 		.4byte	0
 3181 018e 00000000 		.4byte	0
 3182              	.LLST12:
 3183 0192 00000000 		.4byte	.LVL35
 3184 0196 2C000000 		.4byte	.LVL38
 3185 019a 0100     		.2byte	0x1
 3186 019c 50       		.byte	0x50
 3187 019d 2C000000 		.4byte	.LVL38
 3188 01a1 36000000 		.4byte	.LFE71
ARM GAS  /tmp/ccGcML5g.s 			page 57


 3189 01a5 0400     		.2byte	0x4
 3190 01a7 F3       		.byte	0xf3
 3191 01a8 01       		.uleb128 0x1
 3192 01a9 50       		.byte	0x50
 3193 01aa 9F       		.byte	0x9f
 3194 01ab 00000000 		.4byte	0
 3195 01af 00000000 		.4byte	0
 3196              	.LLST13:
 3197 01b3 10000000 		.4byte	.LVL36
 3198 01b7 2A000000 		.4byte	.LVL37
 3199 01bb 0100     		.2byte	0x1
 3200 01bd 52       		.byte	0x52
 3201 01be 2A000000 		.4byte	.LVL37
 3202 01c2 2C000000 		.4byte	.LVL38
 3203 01c6 0300     		.2byte	0x3
 3204 01c8 70       		.byte	0x70
 3205 01c9 D401     		.sleb128 212
 3206 01cb 2C000000 		.4byte	.LVL38
 3207 01cf 35000000 		.4byte	.LVL39-1
 3208 01d3 0600     		.2byte	0x6
 3209 01d5 F3       		.byte	0xf3
 3210 01d6 01       		.uleb128 0x1
 3211 01d7 50       		.byte	0x50
 3212 01d8 23       		.byte	0x23
 3213 01d9 D401     		.uleb128 0xd4
 3214 01db 00000000 		.4byte	0
 3215 01df 00000000 		.4byte	0
 3216              		.section	.debug_aranges,"",%progbits
 3217 0000 3C000000 		.4byte	0x3c
 3218 0004 0200     		.2byte	0x2
 3219 0006 00000000 		.4byte	.Ldebug_info0
 3220 000a 04       		.byte	0x4
 3221 000b 00       		.byte	0
 3222 000c 0000     		.2byte	0
 3223 000e 0000     		.2byte	0
 3224 0010 00000000 		.4byte	.LFB67
 3225 0014 14000000 		.4byte	.LFE67-.LFB67
 3226 0018 00000000 		.4byte	.LFB68
 3227 001c 04010000 		.4byte	.LFE68-.LFB68
 3228 0020 00000000 		.4byte	.LFB69
 3229 0024 28000000 		.4byte	.LFE69-.LFB69
 3230 0028 00000000 		.4byte	.LFB70
 3231 002c 80000000 		.4byte	.LFE70-.LFB70
 3232 0030 00000000 		.4byte	.LFB71
 3233 0034 36000000 		.4byte	.LFE71-.LFB71
 3234 0038 00000000 		.4byte	0
 3235 003c 00000000 		.4byte	0
 3236              		.section	.debug_ranges,"",%progbits
 3237              	.Ldebug_ranges0:
 3238 0000 00000000 		.4byte	.LBB28
 3239 0004 08000000 		.4byte	.LBE28
 3240 0008 0A000000 		.4byte	.LBB43
 3241 000c A2000000 		.4byte	.LBE43
 3242 0010 AA000000 		.4byte	.LBB44
 3243 0014 04010000 		.4byte	.LBE44
 3244 0018 00000000 		.4byte	0
 3245 001c 00000000 		.4byte	0
ARM GAS  /tmp/ccGcML5g.s 			page 58


 3246 0020 18000000 		.4byte	.LBB45
 3247 0024 22000000 		.4byte	.LBE45
 3248 0028 26000000 		.4byte	.LBB48
 3249 002c 5A000000 		.4byte	.LBE48
 3250 0030 00000000 		.4byte	0
 3251 0034 00000000 		.4byte	0
 3252 0038 14000000 		.4byte	.LBB49
 3253 003c 16000000 		.4byte	.LBE49
 3254 0040 18000000 		.4byte	.LBB52
 3255 0044 1E000000 		.4byte	.LBE52
 3256 0048 00000000 		.4byte	0
 3257 004c 00000000 		.4byte	0
 3258 0050 00000000 		.4byte	.LFB67
 3259 0054 14000000 		.4byte	.LFE67
 3260 0058 00000000 		.4byte	.LFB68
 3261 005c 04010000 		.4byte	.LFE68
 3262 0060 00000000 		.4byte	.LFB69
 3263 0064 28000000 		.4byte	.LFE69
 3264 0068 00000000 		.4byte	.LFB70
 3265 006c 80000000 		.4byte	.LFE70
 3266 0070 00000000 		.4byte	.LFB71
 3267 0074 36000000 		.4byte	.LFE71
 3268 0078 00000000 		.4byte	0
 3269 007c 00000000 		.4byte	0
 3270              		.section	.debug_line,"",%progbits
 3271              	.Ldebug_line0:
 3272 0000 04030000 		.section	.debug_str,"MS",%progbits,1
 3272      02002002 
 3272      00000201 
 3272      FB0E0D00 
 3272      01010101 
 3273              	.LASF2:
 3274 0000 73697A65 		.ascii	"size_t\000"
 3274      5F7400
 3275              	.LASF65:
 3276 0007 7264796D 		.ascii	"rdymsg\000"
 3276      736700
 3277              	.LASF81:
 3278 000e 4F757470 		.ascii	"OutputQueue\000"
 3278      75745175 
 3278      65756500 
 3279              	.LASF3:
 3280 001a 5F5F7569 		.ascii	"__uint8_t\000"
 3280      6E74385F 
 3280      7400
 3281              	.LASF122:
 3282 0024 7365745F 		.ascii	"set_error\000"
 3282      6572726F 
 3282      7200
 3283              	.LASF131:
 3284 002e 6E766963 		.ascii	"nvicEnableVector\000"
 3284      456E6162 
 3284      6C655665 
 3284      63746F72 
 3284      00
 3285              	.LASF13:
 3286 003f 6C6F6E67 		.ascii	"long long unsigned int\000"
ARM GAS  /tmp/ccGcML5g.s 			page 59


 3286      206C6F6E 
 3286      6720756E 
 3286      7369676E 
 3286      65642069 
 3287              	.LASF66:
 3288 0056 65786974 		.ascii	"exitcode\000"
 3288      636F6465 
 3288      00
 3289              	.LASF127:
 3290 005f 49544D5F 		.ascii	"ITM_RxBuffer\000"
 3290      52784275 
 3290      66666572 
 3290      00
 3291              	.LASF130:
 3292 006c 73644F62 		.ascii	"sdObjectInit\000"
 3292      6A656374 
 3292      496E6974 
 3292      00
 3293              	.LASF117:
 3294 0079 72656164 		.ascii	"readt\000"
 3294      7400
 3295              	.LASF71:
 3296 007f 715F7761 		.ascii	"q_waiting\000"
 3296      6974696E 
 3296      6700
 3297              	.LASF12:
 3298 0089 6C6F6E67 		.ascii	"long long int\000"
 3298      206C6F6E 
 3298      6720696E 
 3298      7400
 3299              	.LASF1:
 3300 0097 7369676E 		.ascii	"signed char\000"
 3300      65642063 
 3300      68617200 
 3301              	.LASF96:
 3302 00a3 47545052 		.ascii	"GTPR\000"
 3302      00
 3303              	.LASF47:
 3304 00a8 705F6D70 		.ascii	"p_mpool\000"
 3304      6F6F6C00 
 3305              	.LASF55:
 3306 00b0 6D5F7175 		.ascii	"m_queue\000"
 3306      65756500 
 3307              	.LASF22:
 3308 00b8 74736C69 		.ascii	"tslices_t\000"
 3308      6365735F 
 3308      7400
 3309              	.LASF89:
 3310 00c2 5243435F 		.ascii	"RCC_TypeDef\000"
 3310      54797065 
 3310      44656600 
 3311              	.LASF136:
 3312 00ce 64656661 		.ascii	"default_config\000"
 3312      756C745F 
 3312      636F6E66 
 3312      696700
 3313              	.LASF105:
ARM GAS  /tmp/ccGcML5g.s 			page 60


 3314 00dd 73746174 		.ascii	"state\000"
 3314      6500
 3315              	.LASF9:
 3316 00e3 6C6F6E67 		.ascii	"long int\000"
 3316      20696E74 
 3316      00
 3317              	.LASF83:
 3318 00ec 41504232 		.ascii	"APB2RSTR\000"
 3318      52535452 
 3318      00
 3319              	.LASF20:
 3320 00f5 74737461 		.ascii	"tstate_t\000"
 3320      74655F74 
 3320      00
 3321              	.LASF134:
 3322 00fe 2F6D6564 		.ascii	"/media/atmaja/teach/micro/stm32-tf/firmware/test/LC"
 3322      69612F61 
 3322      746D616A 
 3322      612F7465 
 3322      6163682F 
 3323 0131 4400     		.ascii	"D\000"
 3324              	.LASF38:
 3325 0133 705F7265 		.ascii	"p_refs\000"
 3325      667300
 3326              	.LASF73:
 3327 013a 715F6275 		.ascii	"q_buffer\000"
 3327      66666572 
 3327      00
 3328              	.LASF75:
 3329 0143 715F7772 		.ascii	"q_wrptr\000"
 3329      70747200 
 3330              	.LASF40:
 3331 014b 705F7469 		.ascii	"p_time\000"
 3331      6D6500
 3332              	.LASF128:
 3333 0152 63684576 		.ascii	"chEvtBroadcastFlagsI\000"
 3333      7442726F 
 3333      61646361 
 3333      7374466C 
 3333      61677349 
 3334              	.LASF33:
 3335 0167 705F6E65 		.ascii	"p_newer\000"
 3335      77657200 
 3336              	.LASF10:
 3337 016f 5F5F7569 		.ascii	"__uint32_t\000"
 3337      6E743332 
 3337      5F7400
 3338              	.LASF50:
 3339 017a 72656761 		.ascii	"regarm_t\000"
 3339      726D5F74 
 3339      00
 3340              	.LASF120:
 3341 0183 75736172 		.ascii	"usart_deinit\000"
 3341      745F6465 
 3341      696E6974 
 3341      00
 3342              	.LASF63:
ARM GAS  /tmp/ccGcML5g.s 			page 61


 3343 0190 4576656E 		.ascii	"EventSource\000"
 3343      74536F75 
 3343      72636500 
 3344              	.LASF108:
 3345 019c 75736172 		.ascii	"usart\000"
 3345      7400
 3346              	.LASF0:
 3347 01a2 756E7369 		.ascii	"unsigned int\000"
 3347      676E6564 
 3347      20696E74 
 3347      00
 3348              	.LASF15:
 3349 01af 75696E74 		.ascii	"uint16_t\000"
 3349      31365F74 
 3349      00
 3350              	.LASF111:
 3351 01b8 53657269 		.ascii	"SerialDriverVMT\000"
 3351      616C4472 
 3351      69766572 
 3351      564D5400 
 3352              	.LASF106:
 3353 01c8 69717565 		.ascii	"iqueue\000"
 3353      756500
 3354              	.LASF42:
 3355 01cf 705F6D73 		.ascii	"p_msgqueue\000"
 3355      67717565 
 3355      756500
 3356              	.LASF124:
 3357 01da 73645F6C 		.ascii	"sd_lld_init\000"
 3357      6C645F69 
 3357      6E697400 
 3358              	.LASF115:
 3359 01e6 67657474 		.ascii	"gett\000"
 3359      00
 3360              	.LASF104:
 3361 01eb 6576656E 		.ascii	"event\000"
 3361      7400
 3362              	.LASF7:
 3363 01f1 73686F72 		.ascii	"short unsigned int\000"
 3363      7420756E 
 3363      7369676E 
 3363      65642069 
 3363      6E7400
 3364              	.LASF24:
 3365 0204 6D73675F 		.ascii	"msg_t\000"
 3365      7400
 3366              	.LASF107:
 3367 020a 6F717565 		.ascii	"oqueue\000"
 3367      756500
 3368              	.LASF132:
 3369 0211 474E5520 		.ascii	"GNU C 4.8.2 -mcpu=cortex-m3 -mno-thumb-interwork -m"
 3369      4320342E 
 3369      382E3220 
 3369      2D6D6370 
 3369      753D636F 
 3370 0244 7468756D 		.ascii	"thumb -ggdb -O2 -fomit-frame-pointer -ffunction-sec"
 3370      62202D67 
ARM GAS  /tmp/ccGcML5g.s 			page 62


 3370      67646220 
 3370      2D4F3220 
 3370      2D666F6D 
 3371 0277 74696F6E 		.ascii	"tions -fdata-sections -fno-common\000"
 3371      73202D66 
 3371      64617461 
 3371      2D736563 
 3371      74696F6E 
 3372              	.LASF138:
 3373 0299 5F706F72 		.ascii	"_port_irq_epilogue\000"
 3373      745F6972 
 3373      715F6570 
 3373      696C6F67 
 3373      756500
 3374              	.LASF98:
 3375 02ac 55534152 		.ascii	"USART_TypeDef\000"
 3375      545F5479 
 3375      70654465 
 3375      6600
 3376              	.LASF116:
 3377 02ba 77726974 		.ascii	"writet\000"
 3377      657400
 3378              	.LASF19:
 3379 02c1 746D6F64 		.ascii	"tmode_t\000"
 3379      655F7400 
 3380              	.LASF49:
 3381 02c9 54687265 		.ascii	"ThreadsList\000"
 3381      6164734C 
 3381      69737400 
 3382              	.LASF25:
 3383 02d5 6576656E 		.ascii	"eventmask_t\000"
 3383      746D6173 
 3383      6B5F7400 
 3384              	.LASF123:
 3385 02e1 56656374 		.ascii	"VectorD4\000"
 3385      6F724434 
 3385      00
 3386              	.LASF109:
 3387 02ea 73706565 		.ascii	"speed\000"
 3387      6400
 3388              	.LASF79:
 3389 02f0 716E6F74 		.ascii	"qnotify_t\000"
 3389      6966795F 
 3389      7400
 3390              	.LASF70:
 3391 02fa 47656E65 		.ascii	"GenericQueue\000"
 3391      72696351 
 3391      75657565 
 3391      00
 3392              	.LASF112:
 3393 0307 77726974 		.ascii	"write\000"
 3393      6500
 3394              	.LASF114:
 3395 030d 70757474 		.ascii	"putt\000"
 3395      00
 3396              	.LASF119:
 3397 0312 75736172 		.ascii	"usart_init\000"
ARM GAS  /tmp/ccGcML5g.s 			page 63


 3397      745F696E 
 3397      697400
 3398              	.LASF53:
 3399 031d 73697A65 		.ascii	"sizetype\000"
 3399      74797065 
 3399      00
 3400              	.LASF72:
 3401 0326 715F636F 		.ascii	"q_counter\000"
 3401      756E7465 
 3401      7200
 3402              	.LASF54:
 3403 0330 4D757465 		.ascii	"Mutex\000"
 3403      7800
 3404              	.LASF29:
 3405 0336 705F6E65 		.ascii	"p_next\000"
 3405      787400
 3406              	.LASF34:
 3407 033d 705F6F6C 		.ascii	"p_older\000"
 3407      64657200 
 3408              	.LASF137:
 3409 0345 63684F51 		.ascii	"chOQGetI\000"
 3409      47657449 
 3409      00
 3410              	.LASF48:
 3411 034e 54687265 		.ascii	"ThreadsQueue\000"
 3411      61647351 
 3411      75657565 
 3411      00
 3412              	.LASF84:
 3413 035b 41504231 		.ascii	"APB1RSTR\000"
 3413      52535452 
 3413      00
 3414              	.LASF61:
 3415 0364 656C5F6D 		.ascii	"el_mask\000"
 3415      61736B00 
 3416              	.LASF110:
 3417 036c 53657269 		.ascii	"SerialConfig\000"
 3417      616C436F 
 3417      6E666967 
 3417      00
 3418              	.LASF135:
 3419 0379 6E6F7469 		.ascii	"notify1\000"
 3419      66793100 
 3420              	.LASF21:
 3421 0381 74726566 		.ascii	"trefs_t\000"
 3421      735F7400 
 3422              	.LASF90:
 3423 0389 52455345 		.ascii	"RESERVED0\000"
 3423      52564544 
 3423      3000
 3424              	.LASF91:
 3425 0393 52455345 		.ascii	"RESERVED1\000"
 3425      52564544 
 3425      3100
 3426              	.LASF92:
 3427 039d 52455345 		.ascii	"RESERVED2\000"
 3427      52564544 
ARM GAS  /tmp/ccGcML5g.s 			page 64


 3427      3200
 3428              	.LASF93:
 3429 03a7 52455345 		.ascii	"RESERVED3\000"
 3429      52564544 
 3429      3300
 3430              	.LASF94:
 3431 03b1 52455345 		.ascii	"RESERVED4\000"
 3431      52564544 
 3431      3400
 3432              	.LASF30:
 3433 03bb 705F7072 		.ascii	"p_prev\000"
 3433      657600
 3434              	.LASF97:
 3435 03c2 52455345 		.ascii	"RESERVED6\000"
 3435      52564544 
 3435      3600
 3436              	.LASF23:
 3437 03cc 74707269 		.ascii	"tprio_t\000"
 3437      6F5F7400 
 3438              	.LASF76:
 3439 03d4 715F7264 		.ascii	"q_rdptr\000"
 3439      70747200 
 3440              	.LASF18:
 3441 03dc 5F426F6F 		.ascii	"_Bool\000"
 3441      6C00
 3442              	.LASF16:
 3443 03e2 696E7433 		.ascii	"int32_t\000"
 3443      325F7400 
 3444              	.LASF4:
 3445 03ea 756E7369 		.ascii	"unsigned char\000"
 3445      676E6564 
 3445      20636861 
 3445      7200
 3446              	.LASF125:
 3447 03f8 73645F6C 		.ascii	"sd_lld_start\000"
 3447      6C645F73 
 3447      74617274 
 3447      00
 3448              	.LASF60:
 3449 0405 656C5F6C 		.ascii	"el_listener\000"
 3449      69737465 
 3449      6E657200 
 3450              	.LASF62:
 3451 0411 656C5F66 		.ascii	"el_flags\000"
 3451      6C616773 
 3451      00
 3452              	.LASF36:
 3453 041a 705F7374 		.ascii	"p_state\000"
 3453      61746500 
 3454              	.LASF45:
 3455 0422 705F6D74 		.ascii	"p_mtxlist\000"
 3455      786C6973 
 3455      7400
 3456              	.LASF5:
 3457 042c 73686F72 		.ascii	"short int\000"
 3457      7420696E 
 3457      7400
ARM GAS  /tmp/ccGcML5g.s 			page 65


 3458              	.LASF39:
 3459 0436 705F7072 		.ascii	"p_preempt\000"
 3459      65656D70 
 3459      7400
 3460              	.LASF68:
 3461 0440 65776D61 		.ascii	"ewmask\000"
 3461      736B00
 3462              	.LASF37:
 3463 0447 705F666C 		.ascii	"p_flags\000"
 3463      61677300 
 3464              	.LASF59:
 3465 044f 656C5F6E 		.ascii	"el_next\000"
 3465      65787400 
 3466              	.LASF100:
 3467 0457 53445F53 		.ascii	"SD_STOP\000"
 3467      544F5000 
 3468              	.LASF86:
 3469 045f 41504232 		.ascii	"APB2ENR\000"
 3469      454E5200 
 3470              	.LASF28:
 3471 0467 54687265 		.ascii	"Thread\000"
 3471      616400
 3472              	.LASF121:
 3473 046e 73657276 		.ascii	"serve_interrupt\000"
 3473      655F696E 
 3473      74657272 
 3473      75707400 
 3474              	.LASF44:
 3475 047e 705F6570 		.ascii	"p_epending\000"
 3475      656E6469 
 3475      6E6700
 3476              	.LASF99:
 3477 0489 53445F55 		.ascii	"SD_UNINIT\000"
 3477      4E494E49 
 3477      5400
 3478              	.LASF95:
 3479 0493 52455345 		.ascii	"RESERVED5\000"
 3479      52564544 
 3479      3500
 3480              	.LASF17:
 3481 049d 75696E74 		.ascii	"uint32_t\000"
 3481      33325F74 
 3481      00
 3482              	.LASF102:
 3483 04a6 73647374 		.ascii	"sdstate_t\000"
 3483      6174655F 
 3483      7400
 3484              	.LASF103:
 3485 04b0 53657269 		.ascii	"SerialDriver\000"
 3485      616C4472 
 3485      69766572 
 3485      00
 3486              	.LASF139:
 3487 04bd 6E766963 		.ascii	"nvicDisableVector\000"
 3487      44697361 
 3487      626C6556 
 3487      6563746F 
ARM GAS  /tmp/ccGcML5g.s 			page 66


 3487      7200
 3488              	.LASF11:
 3489 04cf 6C6F6E67 		.ascii	"long unsigned int\000"
 3489      20756E73 
 3489      69676E65 
 3489      6420696E 
 3489      7400
 3490              	.LASF113:
 3491 04e1 72656164 		.ascii	"read\000"
 3491      00
 3492              	.LASF69:
 3493 04e6 63686172 		.ascii	"char\000"
 3493      00
 3494              	.LASF129:
 3495 04eb 7364496E 		.ascii	"sdIncomingDataI\000"
 3495      636F6D69 
 3495      6E674461 
 3495      74614900 
 3496              	.LASF118:
 3497 04fb 636F6E66 		.ascii	"config\000"
 3497      696700
 3498              	.LASF6:
 3499 0502 5F5F7569 		.ascii	"__uint16_t\000"
 3499      6E743136 
 3499      5F7400
 3500              	.LASF57:
 3501 050d 6D5F6E65 		.ascii	"m_next\000"
 3501      787400
 3502              	.LASF27:
 3503 0514 73797374 		.ascii	"systime_t\000"
 3503      696D655F 
 3503      7400
 3504              	.LASF46:
 3505 051e 705F7265 		.ascii	"p_realprio\000"
 3505      616C7072 
 3505      696F00
 3506              	.LASF8:
 3507 0529 5F5F696E 		.ascii	"__int32_t\000"
 3507      7433325F 
 3507      7400
 3508              	.LASF87:
 3509 0533 41504231 		.ascii	"APB1ENR\000"
 3509      454E5200 
 3510              	.LASF52:
 3511 053b 636F6E74 		.ascii	"context\000"
 3511      65787400 
 3512              	.LASF51:
 3513 0543 696E7463 		.ascii	"intctx\000"
 3513      747800
 3514              	.LASF101:
 3515 054a 53445F52 		.ascii	"SD_READY\000"
 3515      45414459 
 3515      00
 3516              	.LASF26:
 3517 0553 666C6167 		.ascii	"flagsmask_t\000"
 3517      736D6173 
 3517      6B5F7400 
ARM GAS  /tmp/ccGcML5g.s 			page 67


 3518              	.LASF74:
 3519 055f 715F746F 		.ascii	"q_top\000"
 3519      7000
 3520              	.LASF35:
 3521 0565 705F6E61 		.ascii	"p_name\000"
 3521      6D6500
 3522              	.LASF64:
 3523 056c 65735F6E 		.ascii	"es_next\000"
 3523      65787400 
 3524              	.LASF88:
 3525 0574 42444352 		.ascii	"BDCR\000"
 3525      00
 3526              	.LASF77:
 3527 0579 715F6E6F 		.ascii	"q_notify\000"
 3527      74696679 
 3527      00
 3528              	.LASF43:
 3529 0582 705F6D73 		.ascii	"p_msg\000"
 3529      6700
 3530              	.LASF14:
 3531 0588 75696E74 		.ascii	"uint8_t\000"
 3531      385F7400 
 3532              	.LASF80:
 3533 0590 496E7075 		.ascii	"InputQueue\000"
 3533      74517565 
 3533      756500
 3534              	.LASF31:
 3535 059b 705F7072 		.ascii	"p_prio\000"
 3535      696F00
 3536              	.LASF58:
 3537 05a2 4576656E 		.ascii	"EventListener\000"
 3537      744C6973 
 3537      74656E65 
 3537      7200
 3538              	.LASF67:
 3539 05b0 77746F62 		.ascii	"wtobjp\000"
 3539      6A7000
 3540              	.LASF82:
 3541 05b7 43464752 		.ascii	"CFGR\000"
 3541      00
 3542              	.LASF133:
 3543 05bc 2E2E2F2E 		.ascii	"../../os/hal/platforms/STM32/USARTv1/serial_lld.c\000"
 3543      2E2F6F73 
 3543      2F68616C 
 3543      2F706C61 
 3543      74666F72 
 3544              	.LASF126:
 3545 05ee 73645F6C 		.ascii	"sd_lld_stop\000"
 3545      6C645F73 
 3545      746F7000 
 3546              	.LASF78:
 3547 05fa 715F6C69 		.ascii	"q_link\000"
 3547      6E6B00
 3548              	.LASF56:
 3549 0601 6D5F6F77 		.ascii	"m_owner\000"
 3549      6E657200 
 3550              	.LASF32:
ARM GAS  /tmp/ccGcML5g.s 			page 68


 3551 0609 705F6374 		.ascii	"p_ctx\000"
 3551      7800
 3552              	.LASF41:
 3553 060f 705F7761 		.ascii	"p_waiting\000"
 3553      6974696E 
 3553      6700
 3554              	.LASF85:
 3555 0619 41484245 		.ascii	"AHBENR\000"
 3555      4E5200
 3556              		.ident	"GCC: (4.8.2-14ubuntu1+6) 4.8.2"
ARM GAS  /tmp/ccGcML5g.s 			page 69


DEFINED SYMBOLS
                            *ABS*:0000000000000000 serial_lld.c
     /tmp/ccGcML5g.s:19     .text.notify1:0000000000000000 $t
     /tmp/ccGcML5g.s:23     .text.notify1:0000000000000000 notify1
     /tmp/ccGcML5g.s:44     .text.VectorD4:0000000000000000 $t
     /tmp/ccGcML5g.s:49     .text.VectorD4:0000000000000000 VectorD4
     /tmp/ccGcML5g.s:530    .bss.SD1:0000000000000000 .LANCHOR0
     /tmp/ccGcML5g.s:292    .text.VectorD4:00000000000000fc $d
     /tmp/ccGcML5g.s:301    .text.sd_lld_init:0000000000000000 $t
     /tmp/ccGcML5g.s:306    .text.sd_lld_init:0000000000000000 sd_lld_init
     /tmp/ccGcML5g.s:334    .text.sd_lld_start:0000000000000000 $t
     /tmp/ccGcML5g.s:339    .text.sd_lld_start:0000000000000000 sd_lld_start
     /tmp/ccGcML5g.s:519    .rodata.default_config:0000000000000000 .LANCHOR1
     /tmp/ccGcML5g.s:452    .text.sd_lld_stop:0000000000000000 $t
     /tmp/ccGcML5g.s:457    .text.sd_lld_stop:0000000000000000 sd_lld_stop
     /tmp/ccGcML5g.s:533    .bss.SD1:0000000000000000 SD1
     /tmp/ccGcML5g.s:518    .rodata.default_config:0000000000000000 $d
     /tmp/ccGcML5g.s:522    .rodata.default_config:0000000000000000 default_config
     /tmp/ccGcML5g.s:529    .bss.SD1:0000000000000000 $d
                     .debug_frame:0000000000000010 $d

UNDEFINED SYMBOLS
sdIncomingDataI
chEvtBroadcastFlagsI
_port_irq_epilogue
chOQGetI
sdObjectInit
nvicEnableVector
nvicDisableVector
