ARM GAS  /tmp/cc9ev94F.s 			page 1


   1              		.syntax unified
   2              		.cpu cortex-m3
   3              		.fpu softvfp
   4              		.eabi_attribute 20, 1
   5              		.eabi_attribute 21, 1
   6              		.eabi_attribute 23, 3
   7              		.eabi_attribute 24, 1
   8              		.eabi_attribute 25, 1
   9              		.eabi_attribute 26, 1
  10              		.eabi_attribute 30, 2
  11              		.eabi_attribute 34, 1
  12              		.eabi_attribute 18, 4
  13              		.thumb
  14              		.file	"hal.c"
  15              		.text
  16              	.Ltext0:
  17              		.cfi_sections	.debug_frame
  18              		.section	.text.halInit,"ax",%progbits
  19              		.align	2
  20              		.global	halInit
  21              		.thumb
  22              		.thumb_func
  23              		.type	halInit, %function
  24              	halInit:
  25              	.LFB63:
  26              		.file 1 "../../os/hal/src/hal.c"
  27              		.loc 1 68 0
  28              		.cfi_startproc
  29              		@ args = 0, pretend = 0, frame = 0
  30              		@ frame_needed = 0, uses_anonymous_args = 0
  31 0000 08B5     		push	{r3, lr}
  32              		.cfi_def_cfa_offset 8
  33              		.cfi_offset 3, -8
  34              		.cfi_offset 14, -4
  35              		.loc 1 70 0
  36 0002 FFF7FEFF 		bl	hal_lld_init
  37              	.LVL0:
  38              		.loc 1 73 0
  39 0006 FFF7FEFF 		bl	tmInit
  40              	.LVL1:
  41              		.loc 1 76 0
  42 000a 0448     		ldr	r0, .L2
  43 000c FFF7FEFF 		bl	_pal_lld_init
  44              	.LVL2:
  45              		.loc 1 103 0
  46 0010 FFF7FEFF 		bl	sdInit
  47              	.LVL3:
  48              		.loc 1 128 0
  49 0014 BDE80840 		pop	{r3, lr}
  50              		.loc 1 127 0
  51 0018 FFF7FEBF 		b	boardInit
  52              	.LVL4:
  53              	.L3:
  54              		.align	2
  55              	.L2:
  56 001c 00000000 		.word	pal_default_config
  57              		.cfi_endproc
ARM GAS  /tmp/cc9ev94F.s 			page 2


  58              	.LFE63:
  59              		.size	halInit, .-halInit
  60              		.section	.text.halIsCounterWithin,"ax",%progbits
  61              		.align	2
  62              		.global	halIsCounterWithin
  63              		.thumb
  64              		.thumb_func
  65              		.type	halIsCounterWithin, %function
  66              	halIsCounterWithin:
  67              	.LFB64:
  68              		.loc 1 174 0
  69              		.cfi_startproc
  70              		@ args = 0, pretend = 0, frame = 0
  71              		@ frame_needed = 0, uses_anonymous_args = 0
  72              		@ link register save eliminated.
  73              	.LVL5:
  74              		.loc 1 175 0
  75 0000 084B     		ldr	r3, .L13
  76              		.loc 1 177 0
  77 0002 8142     		cmp	r1, r0
  78              		.loc 1 175 0
  79 0004 5B68     		ldr	r3, [r3, #4]
  80              	.LVL6:
  81              		.loc 1 177 0
  82 0006 06D9     		bls	.L5
  83              		.loc 1 177 0 is_stmt 0 discriminator 1
  84 0008 8342     		cmp	r3, r0
  85 000a 08D3     		bcc	.L9
  86              	.L11:
  87 000c 8B42     		cmp	r3, r1
  88 000e 2CBF     		ite	cs
  89 0010 0020     		movcs	r0, #0
  90              	.LVL7:
  91 0012 0120     		movcc	r0, #1
  92 0014 7047     		bx	lr
  93              	.LVL8:
  94              	.L5:
  95              		.loc 1 178 0 is_stmt 1
  96 0016 8342     		cmp	r3, r0
  97 0018 F8D3     		bcc	.L11
  98 001a 0120     		movs	r0, #1
  99              	.LVL9:
 100              		.loc 1 179 0
 101 001c 7047     		bx	lr
 102              	.LVL10:
 103              	.L9:
 104 001e 0020     		movs	r0, #0
 105              	.LVL11:
 106 0020 7047     		bx	lr
 107              	.L14:
 108 0022 00BF     		.align	2
 109              	.L13:
 110 0024 001000E0 		.word	-536866816
 111              		.cfi_endproc
 112              	.LFE64:
 113              		.size	halIsCounterWithin, .-halIsCounterWithin
 114              		.section	.text.halPolledDelay,"ax",%progbits
ARM GAS  /tmp/cc9ev94F.s 			page 3


 115              		.align	2
 116              		.global	halPolledDelay
 117              		.thumb
 118              		.thumb_func
 119              		.type	halPolledDelay, %function
 120              	halPolledDelay:
 121              	.LFB65:
 122              		.loc 1 193 0
 123              		.cfi_startproc
 124              		@ args = 0, pretend = 0, frame = 0
 125              		@ frame_needed = 0, uses_anonymous_args = 0
 126              		@ link register save eliminated.
 127              	.LVL12:
 128              		.loc 1 194 0
 129 0000 0C49     		ldr	r1, .L26
 130 0002 4A68     		ldr	r2, [r1, #4]
 131              	.LVL13:
 132              		.loc 1 195 0
 133 0004 1044     		add	r0, r0, r2
 134              	.LVL14:
 135              	.L21:
 136              	.LBB4:
 137              	.LBB5:
 138              		.loc 1 177 0 discriminator 1
 139 0006 8242     		cmp	r2, r0
 140              		.loc 1 175 0 discriminator 1
 141 0008 4B68     		ldr	r3, [r1, #4]
 142              	.LVL15:
 143              		.loc 1 177 0 discriminator 1
 144 000a 0CD2     		bcs	.L16
 145              		.loc 1 177 0 is_stmt 0
 146 000c 9A42     		cmp	r2, r3
 147 000e 03D9     		bls	.L24
 148 0010 0023     		movs	r3, #0
 149              	.LVL16:
 150              	.LBE5:
 151              	.LBE4:
 152              		.loc 1 196 0 is_stmt 1
 153 0012 002B     		cmp	r3, #0
 154 0014 F7D1     		bne	.L21
 155              	.L25:
 156              		.loc 1 198 0
 157 0016 7047     		bx	lr
 158              	.LVL17:
 159              	.L24:
 160 0018 9842     		cmp	r0, r3
 161 001a 94BF     		ite	ls
 162 001c 0023     		movls	r3, #0
 163              	.LVL18:
 164 001e 0123     		movhi	r3, #1
 165              		.loc 1 196 0
 166 0020 002B     		cmp	r3, #0
 167 0022 F0D1     		bne	.L21
 168 0024 F7E7     		b	.L25
 169              	.LVL19:
 170              	.L16:
 171              	.LBB7:
ARM GAS  /tmp/cc9ev94F.s 			page 4


 172              	.LBB6:
 173              		.loc 1 178 0
 174 0026 9A42     		cmp	r2, r3
 175 0028 F6D8     		bhi	.L24
 176 002a 0123     		movs	r3, #1
 177              	.LVL20:
 178              	.LBE6:
 179              	.LBE7:
 180              		.loc 1 196 0
 181 002c 002B     		cmp	r3, #0
 182 002e EAD1     		bne	.L21
 183 0030 F1E7     		b	.L25
 184              	.L27:
 185 0032 00BF     		.align	2
 186              	.L26:
 187 0034 001000E0 		.word	-536866816
 188              		.cfi_endproc
 189              	.LFE65:
 190              		.size	halPolledDelay, .-halPolledDelay
 191              		.text
 192              	.Letext0:
 193              		.file 2 "/usr/include/newlib/machine/_default_types.h"
 194              		.file 3 "/usr/include/newlib/stdint.h"
 195              		.file 4 "../../os/ports/GCC/ARMCMx/chtypes.h"
 196              		.file 5 "../../os/ports/common/ARMCMx/nvic.h"
 197              		.file 6 "../../os/hal/platforms/STM32F1xx/hal_lld.h"
 198              		.file 7 "../../os/hal/platforms/STM32/GPIOv1/pal_lld.h"
 199              		.file 8 "../../os/ports/common/ARMCMx/CMSIS/include/core_cm3.h"
 200              		.file 9 "../../os/hal/include/tm.h"
 201              		.file 10 "../../os/hal/include/serial.h"
 202              		.file 11 "../../boards/STM32_TF/board.h"