ARM GAS  /tmp/ccp4ied6.s 			page 1


   1              		.syntax unified
   2              		.cpu cortex-m3
   3              		.fpu softvfp
   4              		.eabi_attribute 20, 1
   5              		.eabi_attribute 21, 1
   6              		.eabi_attribute 23, 3
   7              		.eabi_attribute 24, 1
   8              		.eabi_attribute 25, 1
   9              		.eabi_attribute 26, 1
  10              		.eabi_attribute 30, 2
  11              		.eabi_attribute 34, 1
  12              		.eabi_attribute 18, 4
  13              		.thumb
  14              		.file	"pal_lld.c"
  15              		.text
  16              	.Ltext0:
  17              		.cfi_sections	.debug_frame
  18              		.section	.text._pal_lld_init,"ax",%progbits
  19              		.align	2
  20              		.global	_pal_lld_init
  21              		.thumb
  22              		.thumb_func
  23              		.type	_pal_lld_init, %function
  24              	_pal_lld_init:
  25              	.LFB63:
  26              		.file 1 "../../os/hal/platforms/STM32/GPIOv1/pal_lld.c"
  27              		.loc 1 77 0
  28              		.cfi_startproc
  29              		@ args = 0, pretend = 0, frame = 0
  30              		@ frame_needed = 0, uses_anonymous_args = 0
  31              		@ link register save eliminated.
  32              	.LVL0:
  33              		.loc 1 82 0
  34 0000 154A     		ldr	r2, .L2
  35              		.loc 1 77 0
  36 0002 30B4     		push	{r4, r5}
  37              		.cfi_def_cfa_offset 8
  38              		.cfi_offset 4, -8
  39              		.cfi_offset 5, -4
  40              		.loc 1 82 0
  41 0004 9169     		ldr	r1, [r2, #24]
  42              		.loc 1 87 0
  43 0006 154B     		ldr	r3, .L2+4
  44              		.loc 1 82 0
  45 0008 41F07D01 		orr	r1, r1, #125
  46 000c 9161     		str	r1, [r2, #24]
  47              		.loc 1 87 0
  48 000e 0268     		ldr	r2, [r0]
  49              		.loc 1 90 0
  50 0010 134C     		ldr	r4, .L2+8
  51              		.loc 1 87 0
  52 0012 DA60     		str	r2, [r3, #12]
  53              		.loc 1 88 0
  54 0014 8268     		ldr	r2, [r0, #8]
  55              		.loc 1 93 0
  56 0016 1349     		ldr	r1, .L2+12
  57              		.loc 1 88 0
ARM GAS  /tmp/ccp4ied6.s 			page 2


  58 0018 5A60     		str	r2, [r3, #4]
  59              		.loc 1 89 0
  60 001a 4568     		ldr	r5, [r0, #4]
  61              		.loc 1 96 0
  62 001c 124A     		ldr	r2, .L2+16
  63              		.loc 1 89 0
  64 001e 1D60     		str	r5, [r3]
  65              		.loc 1 90 0
  66 0020 C568     		ldr	r5, [r0, #12]
  67              		.loc 1 100 0
  68 0022 03F58053 		add	r3, r3, #4096
  69              		.loc 1 90 0
  70 0026 E560     		str	r5, [r4, #12]
  71              		.loc 1 91 0
  72 0028 4569     		ldr	r5, [r0, #20]
  73 002a 6560     		str	r5, [r4, #4]
  74              		.loc 1 92 0
  75 002c 0569     		ldr	r5, [r0, #16]
  76 002e 2560     		str	r5, [r4]
  77              		.loc 1 93 0
  78 0030 8469     		ldr	r4, [r0, #24]
  79 0032 CC60     		str	r4, [r1, #12]
  80              		.loc 1 94 0
  81 0034 046A     		ldr	r4, [r0, #32]
  82 0036 4C60     		str	r4, [r1, #4]
  83              		.loc 1 95 0
  84 0038 C469     		ldr	r4, [r0, #28]
  85 003a 0C60     		str	r4, [r1]
  86              		.loc 1 96 0
  87 003c 416A     		ldr	r1, [r0, #36]
  88              		.loc 1 114 0
  89 003e 30BC     		pop	{r4, r5}
  90              		.loc 1 96 0
  91 0040 D160     		str	r1, [r2, #12]
  92              		.loc 1 97 0
  93 0042 C16A     		ldr	r1, [r0, #44]
  94 0044 5160     		str	r1, [r2, #4]
  95              		.loc 1 98 0
  96 0046 816A     		ldr	r1, [r0, #40]
  97 0048 1160     		str	r1, [r2]
  98              		.loc 1 100 0
  99 004a 026B     		ldr	r2, [r0, #48]
 100 004c DA60     		str	r2, [r3, #12]
 101              		.loc 1 101 0
 102 004e 826B     		ldr	r2, [r0, #56]
 103 0050 5A60     		str	r2, [r3, #4]
 104              		.loc 1 102 0
 105 0052 426B     		ldr	r2, [r0, #52]
 106 0054 1A60     		str	r2, [r3]
 107              		.loc 1 114 0
 108 0056 7047     		bx	lr
 109              	.L3:
 110              		.align	2
 111              	.L2:
 112 0058 00100240 		.word	1073876992
 113 005c 00080140 		.word	1073809408
 114 0060 000C0140 		.word	1073810432
ARM GAS  /tmp/ccp4ied6.s 			page 3


 115 0064 00100140 		.word	1073811456
 116 0068 00140140 		.word	1073812480
 117              		.cfi_endproc
 118              	.LFE63:
 119              		.size	_pal_lld_init, .-_pal_lld_init
 120              		.section	.text._pal_lld_setgroupmode,"ax",%progbits
 121              		.align	2
 122              		.global	_pal_lld_setgroupmode
 123              		.thumb
 124              		.thumb_func
 125              		.type	_pal_lld_setgroupmode, %function
 126              	_pal_lld_setgroupmode:
 127              	.LFB64:
 128              		.loc 1 133 0
 129              		.cfi_startproc
 130              		@ args = 0, pretend = 0, frame = 0
 131              		@ frame_needed = 0, uses_anonymous_args = 0
 132              		@ link register save eliminated.
 133              	.LVL1:
 134              		.loc 1 157 0
 135 0000 032A     		cmp	r2, #3
 136              		.loc 1 133 0
 137 0002 F0B4     		push	{r4, r5, r6, r7}
 138              		.cfi_def_cfa_offset 16
 139              		.cfi_offset 4, -16
 140              		.cfi_offset 5, -12
 141              		.cfi_offset 6, -8
 142              		.cfi_offset 7, -4
 143              		.loc 1 157 0
 144 0004 2BD0     		beq	.L15
 145              		.loc 1 159 0
 146 0006 042A     		cmp	r2, #4
 147              		.loc 1 160 0
 148 0008 08BF     		it	eq
 149 000a 4161     		streq	r1, [r0, #20]
 150              	.L6:
 151              		.loc 1 161 0
 152 000c 154C     		ldr	r4, .L16
 153              		.loc 1 162 0
 154 000e 0023     		movs	r3, #0
 155              		.loc 1 161 0
 156 0010 A75C     		ldrb	r7, [r4, r2]	@ zero_extendqisi2
 157              	.LVL2:
 158              		.loc 1 162 0
 159 0012 1D46     		mov	r5, r3
 160 0014 1C46     		mov	r4, r3
 161 0016 1A46     		mov	r2, r3
 162              	.LVL3:
 163              		.loc 1 161 0
 164 0018 0826     		movs	r6, #8
 165              	.LVL4:
 166              	.L12:
 167              		.loc 1 168 0
 168 001a 11F0800F 		tst	r1, #128
 169              		.loc 1 164 0
 170 001e 4FEA0212 		lsl	r2, r2, #4
 171              	.LVL5:
ARM GAS  /tmp/ccp4ied6.s 			page 4


 172              		.loc 1 166 0
 173 0022 4FEA0313 		lsl	r3, r3, #4
 174              	.LVL6:
 175              		.loc 1 165 0
 176 0026 4FEA0515 		lsl	r5, r5, #4
 177              	.LVL7:
 178              		.loc 1 167 0
 179 002a 4FEA0414 		lsl	r4, r4, #4
 180              	.LVL8:
 181              		.loc 1 169 0
 182 002e 0CBF     		ite	eq
 183 0030 42F00F02 		orreq	r2, r2, #15
 184              	.LVL9:
 185              		.loc 1 171 0
 186 0034 3B43     		orrne	r3, r3, r7
 187              	.LVL10:
 188              		.loc 1 172 0
 189 0036 11F4004F 		tst	r1, #32768
 190              		.loc 1 173 0
 191 003a 0CBF     		ite	eq
 192 003c 45F00F05 		orreq	r5, r5, #15
 193              	.LVL11:
 194              		.loc 1 175 0
 195 0040 3C43     		orrne	r4, r4, r7
 196              	.LVL12:
 197              		.loc 1 163 0
 198 0042 013E     		subs	r6, r6, #1
 199              	.LVL13:
 200              		.loc 1 176 0
 201 0044 4FEA4101 		lsl	r1, r1, #1
 202              	.LVL14:
 203              		.loc 1 163 0
 204 0048 E7D1     		bne	.L12
 205              		.loc 1 178 0
 206 004a 4168     		ldr	r1, [r0, #4]
 207              	.LVL15:
 208 004c 0D40     		ands	r5, r5, r1
 209              	.LVL16:
 210 004e 2C43     		orrs	r4, r4, r5
 211              	.LVL17:
 212 0050 4460     		str	r4, [r0, #4]
 213              		.loc 1 179 0
 214 0052 0168     		ldr	r1, [r0]
 215              		.loc 1 180 0
 216 0054 F0BC     		pop	{r4, r5, r6, r7}
 217              	.LVL18:
 218              		.loc 1 179 0
 219 0056 0A40     		ands	r2, r2, r1
 220              	.LVL19:
 221 0058 1343     		orrs	r3, r3, r2
 222              	.LVL20:
 223 005a 0360     		str	r3, [r0]
 224              		.loc 1 180 0
 225 005c 7047     		bx	lr
 226              	.LVL21:
 227              	.L15:
 228              		.loc 1 158 0
ARM GAS  /tmp/ccp4ied6.s 			page 5


 229 005e 0161     		str	r1, [r0, #16]
 230 0060 D4E7     		b	.L6
 231              	.L17:
 232 0062 00BF     		.align	2
 233              	.L16:
 234 0064 00000000 		.word	.LANCHOR0
 235              		.cfi_endproc
 236              	.LFE64:
 237              		.size	_pal_lld_setgroupmode, .-_pal_lld_setgroupmode
 238              		.section	.rodata.cfgtab.6062,"a",%progbits
 239              		.align	2
 240              		.set	.LANCHOR0,. + 0
 241              		.type	cfgtab.6062, %object
 242              		.size	cfgtab.6062, 18
 243              	cfgtab.6062:
 244 0000 04       		.byte	4
 245 0001 02       		.byte	2
 246 0002 04       		.byte	4
 247 0003 08       		.byte	8
 248 0004 08       		.byte	8
 249 0005 00       		.byte	0
 250 0006 03       		.byte	3
 251 0007 07       		.byte	7
 252 0008 08       		.byte	8
 253 0009 08       		.byte	8
 254 000a 08       		.byte	8
 255 000b 08       		.byte	8
 256 000c 08       		.byte	8
 257 000d 08       		.byte	8
 258 000e 08       		.byte	8
 259 000f 08       		.byte	8
 260 0010 0B       		.byte	11
 261 0011 0F       		.byte	15
 262 0012 0000     		.text
 263              	.Letext0:
 264              		.file 2 "/usr/include/newlib/machine/_default_types.h"
 265              		.file 3 "/usr/include/newlib/stdint.h"
 266              		.file 4 "../../os/hal/platforms/STM32F1xx/stm32f10x.h"
 267              		.file 5 "../../os/hal/platforms/STM32/GPIOv1/pal_lld.h"
 268              		.file 6 "../../os/ports/common/ARMCMx/CMSIS/include/core_cm3.h"