ARM GAS  /tmp/ccp4ied6.s 			page 1


   1              		.syntax unified
   2              		.cpu cortex-m3
   3              		.fpu softvfp
   4              		.eabi_attribute 20, 1
   5              		.eabi_attribute 21, 1
   6              		.eabi_attribute 23, 3
   7              		.eabi_attribute 24, 1
   8              		.eabi_attribute 25, 1
   9              		.eabi_attribute 26, 1
  10              		.eabi_attribute 30, 2
  11              		.eabi_attribute 34, 1
  12              		.eabi_attribute 18, 4
  13              		.thumb
  14              		.file	"pal_lld.c"
  15              		.text
  16              	.Ltext0:
  17              		.cfi_sections	.debug_frame
  18              		.section	.text._pal_lld_init,"ax",%progbits
  19              		.align	2
  20              		.global	_pal_lld_init
  21              		.thumb
  22              		.thumb_func
  23              		.type	_pal_lld_init, %function
  24              	_pal_lld_init:
  25              	.LFB63:
  26              		.file 1 "../../os/hal/platforms/STM32/GPIOv1/pal_lld.c"
  27              		.loc 1 77 0
  28              		.cfi_startproc
  29              		@ args = 0, pretend = 0, frame = 0
  30              		@ frame_needed = 0, uses_anonymous_args = 0
  31              		@ link register save eliminated.
  32              	.LVL0:
  33              		.loc 1 82 0
  34 0000 154A     		ldr	r2, .L2
  35              		.loc 1 77 0
  36 0002 30B4     		push	{r4, r5}
  37              		.cfi_def_cfa_offset 8
  38              		.cfi_offset 4, -8
  39              		.cfi_offset 5, -4
  40              		.loc 1 82 0
  41 0004 9169     		ldr	r1, [r2, #24]
  42              		.loc 1 87 0
  43 0006 154B     		ldr	r3, .L2+4
  44              		.loc 1 82 0
  45 0008 41F07D01 		orr	r1, r1, #125
  46 000c 9161     		str	r1, [r2, #24]
  47              		.loc 1 87 0
  48 000e 0268     		ldr	r2, [r0]
  49              		.loc 1 90 0
  50 0010 134C     		ldr	r4, .L2+8
  51              		.loc 1 87 0
  52 0012 DA60     		str	r2, [r3, #12]
  53              		.loc 1 88 0
  54 0014 8268     		ldr	r2, [r0, #8]
  55              		.loc 1 93 0
  56 0016 1349     		ldr	r1, .L2+12
  57              		.loc 1 88 0
ARM GAS  /tmp/ccp4ied6.s 			page 2


  58 0018 5A60     		str	r2, [r3, #4]
  59              		.loc 1 89 0
  60 001a 4568     		ldr	r5, [r0, #4]
  61              		.loc 1 96 0
  62 001c 124A     		ldr	r2, .L2+16
  63              		.loc 1 89 0
  64 001e 1D60     		str	r5, [r3]
  65              		.loc 1 90 0
  66 0020 C568     		ldr	r5, [r0, #12]
  67              		.loc 1 100 0
  68 0022 03F58053 		add	r3, r3, #4096
  69              		.loc 1 90 0
  70 0026 E560     		str	r5, [r4, #12]
  71              		.loc 1 91 0
  72 0028 4569     		ldr	r5, [r0, #20]
  73 002a 6560     		str	r5, [r4, #4]
  74              		.loc 1 92 0
  75 002c 0569     		ldr	r5, [r0, #16]
  76 002e 2560     		str	r5, [r4]
  77              		.loc 1 93 0
  78 0030 8469     		ldr	r4, [r0, #24]
  79 0032 CC60     		str	r4, [r1, #12]
  80              		.loc 1 94 0
  81 0034 046A     		ldr	r4, [r0, #32]
  82 0036 4C60     		str	r4, [r1, #4]
  83              		.loc 1 95 0
  84 0038 C469     		ldr	r4, [r0, #28]
  85 003a 0C60     		str	r4, [r1]
  86              		.loc 1 96 0
  87 003c 416A     		ldr	r1, [r0, #36]
  88              		.loc 1 114 0
  89 003e 30BC     		pop	{r4, r5}
  90              		.loc 1 96 0
  91 0040 D160     		str	r1, [r2, #12]
  92              		.loc 1 97 0
  93 0042 C16A     		ldr	r1, [r0, #44]
  94 0044 5160     		str	r1, [r2, #4]
  95              		.loc 1 98 0
  96 0046 816A     		ldr	r1, [r0, #40]
  97 0048 1160     		str	r1, [r2]
  98              		.loc 1 100 0
  99 004a 026B     		ldr	r2, [r0, #48]
 100 004c DA60     		str	r2, [r3, #12]
 101              		.loc 1 101 0
 102 004e 826B     		ldr	r2, [r0, #56]
 103 0050 5A60     		str	r2, [r3, #4]
 104              		.loc 1 102 0
 105 0052 426B     		ldr	r2, [r0, #52]
 106 0054 1A60     		str	r2, [r3]
 107              		.loc 1 114 0
 108 0056 7047     		bx	lr
 109              	.L3:
 110              		.align	2
 111              	.L2:
 112 0058 00100240 		.word	1073876992
 113 005c 00080140 		.word	1073809408
 114 0060 000C0140 		.word	1073810432
ARM GAS  /tmp/ccp4ied6.s 			page 3


 115 0064 00100140 		.word	1073811456
 116 0068 00140140 		.word	1073812480
 117              		.cfi_endproc
 118              	.LFE63:
 119              		.size	_pal_lld_init, .-_pal_lld_init
 120              		.section	.text._pal_lld_setgroupmode,"ax",%progbits
 121              		.align	2
 122              		.global	_pal_lld_setgroupmode
 123              		.thumb
 124              		.thumb_func
 125              		.type	_pal_lld_setgroupmode, %function
 126              	_pal_lld_setgroupmode:
 127              	.LFB64:
 128              		.loc 1 133 0
 129              		.cfi_startproc
 130              		@ args = 0, pretend = 0, frame = 0
 131              		@ frame_needed = 0, uses_anonymous_args = 0
 132              		@ link register save eliminated.
 133              	.LVL1:
 134              		.loc 1 157 0
 135 0000 032A     		cmp	r2, #3
 136              		.loc 1 133 0
 137 0002 F0B4     		push	{r4, r5, r6, r7}
 138              		.cfi_def_cfa_offset 16
 139              		.cfi_offset 4, -16
 140              		.cfi_offset 5, -12
 141              		.cfi_offset 6, -8
 142              		.cfi_offset 7, -4
 143              		.loc 1 157 0
 144 0004 2BD0     		beq	.L15
 145              		.loc 1 159 0
 146 0006 042A     		cmp	r2, #4
 147              		.loc 1 160 0
 148 0008 08BF     		it	eq
 149 000a 4161     		streq	r1, [r0, #20]
 150              	.L6:
 151              		.loc 1 161 0
 152 000c 154C     		ldr	r4, .L16
 153              		.loc 1 162 0
 154 000e 0023     		movs	r3, #0
 155              		.loc 1 161 0
 156 0010 A75C     		ldrb	r7, [r4, r2]	@ zero_extendqisi2
 157              	.LVL2:
 158              		.loc 1 162 0
 159 0012 1D46     		mov	r5, r3
 160 0014 1C46     		mov	r4, r3
 161 0016 1A46     		mov	r2, r3
 162              	.LVL3:
 163              		.loc 1 161 0
 164 0018 0826     		movs	r6, #8
 165              	.LVL4:
 166              	.L12:
 167              		.loc 1 168 0
 168 001a 11F0800F 		tst	r1, #128
 169              		.loc 1 164 0
 170 001e 4FEA0212 		lsl	r2, r2, #4
 171              	.LVL5:
ARM GAS  /tmp/ccp4ied6.s 			page 4


 172              		.loc 1 166 0
 173 0022 4FEA0313 		lsl	r3, r3, #4
 174              	.LVL6:
 175              		.loc 1 165 0
 176 0026 4FEA0515 		lsl	r5, r5, #4
 177              	.LVL7:
 178              		.loc 1 167 0
 179 002a 4FEA0414 		lsl	r4, r4, #4
 180              	.LVL8:
 181              		.loc 1 169 0
 182 002e 0CBF     		ite	eq
 183 0030 42F00F02 		orreq	r2, r2, #15
 184              	.LVL9:
 185              		.loc 1 171 0
 186 0034 3B43     		orrne	r3, r3, r7
 187              	.LVL10:
 188              		.loc 1 172 0
 189 0036 11F4004F 		tst	r1, #32768
 190              		.loc 1 173 0
 191 003a 0CBF     		ite	eq
 192 003c 45F00F05 		orreq	r5, r5, #15
 193              	.LVL11:
 194              		.loc 1 175 0
 195 0040 3C43     		orrne	r4, r4, r7
 196              	.LVL12:
 197              		.loc 1 163 0
 198 0042 013E     		subs	r6, r6, #1
 199              	.LVL13:
 200              		.loc 1 176 0
 201 0044 4FEA4101 		lsl	r1, r1, #1
 202              	.LVL14:
 203              		.loc 1 163 0
 204 0048 E7D1     		bne	.L12
 205              		.loc 1 178 0
 206 004a 4168     		ldr	r1, [r0, #4]
 207              	.LVL15:
 208 004c 0D40     		ands	r5, r5, r1
 209              	.LVL16:
 210 004e 2C43     		orrs	r4, r4, r5
 211              	.LVL17:
 212 0050 4460     		str	r4, [r0, #4]
 213              		.loc 1 179 0
 214 0052 0168     		ldr	r1, [r0]
 215              		.loc 1 180 0
 216 0054 F0BC     		pop	{r4, r5, r6, r7}
 217              	.LVL18:
 218              		.loc 1 179 0
 219 0056 0A40     		ands	r2, r2, r1
 220              	.LVL19:
 221 0058 1343     		orrs	r3, r3, r2
 222              	.LVL20:
 223 005a 0360     		str	r3, [r0]
 224              		.loc 1 180 0
 225 005c 7047     		bx	lr
 226              	.LVL21:
 227              	.L15:
 228              		.loc 1 158 0
ARM GAS  /tmp/ccp4ied6.s 			page 5


 229 005e 0161     		str	r1, [r0, #16]
 230 0060 D4E7     		b	.L6
 231              	.L17:
 232 0062 00BF     		.align	2
 233              	.L16:
 234 0064 00000000 		.word	.LANCHOR0
 235              		.cfi_endproc
 236              	.LFE64:
 237              		.size	_pal_lld_setgroupmode, .-_pal_lld_setgroupmode
 238              		.section	.rodata.cfgtab.6062,"a",%progbits
 239              		.align	2
 240              		.set	.LANCHOR0,. + 0
 241              		.type	cfgtab.6062, %object
 242              		.size	cfgtab.6062, 18
 243              	cfgtab.6062:
 244 0000 04       		.byte	4
 245 0001 02       		.byte	2
 246 0002 04       		.byte	4
 247 0003 08       		.byte	8
 248 0004 08       		.byte	8
 249 0005 00       		.byte	0
 250 0006 03       		.byte	3
 251 0007 07       		.byte	7
 252 0008 08       		.byte	8
 253 0009 08       		.byte	8
 254 000a 08       		.byte	8
 255 000b 08       		.byte	8
 256 000c 08       		.byte	8
 257 000d 08       		.byte	8
 258 000e 08       		.byte	8
 259 000f 08       		.byte	8
 260 0010 0B       		.byte	11
 261 0011 0F       		.byte	15
 262 0012 0000     		.text
 263              	.Letext0:
 264              		.file 2 "/usr/include/newlib/machine/_default_types.h"
 265              		.file 3 "/usr/include/newlib/stdint.h"
 266              		.file 4 "../../os/hal/platforms/STM32F1xx/stm32f10x.h"
 267              		.file 5 "../../os/hal/platforms/STM32/GPIOv1/pal_lld.h"
 268              		.file 6 "../../os/ports/common/ARMCMx/CMSIS/include/core_cm3.h"
 269              		.section	.debug_info,"",%progbits
 270              	.Ldebug_info0:
 271 0000 77030000 		.4byte	0x377
 272 0004 0400     		.2byte	0x4
 273 0006 00000000 		.4byte	.Ldebug_abbrev0
 274 000a 04       		.byte	0x4
 275 000b 01       		.uleb128 0x1
 276 000c F2010000 		.4byte	.LASF46
 277 0010 01       		.byte	0x1
 278 0011 44000000 		.4byte	.LASF47
 279 0015 9B010000 		.4byte	.LASF48
 280 0019 00000000 		.4byte	.Ldebug_ranges0+0
 281 001d 00000000 		.4byte	0
 282 0021 00000000 		.4byte	.Ldebug_line0
 283 0025 02       		.uleb128 0x2
 284 0026 04       		.byte	0x4
 285 0027 05       		.byte	0x5
ARM GAS  /tmp/ccp4ied6.s 			page 6


 286 0028 696E7400 		.ascii	"int\000"
 287 002c 03       		.uleb128 0x3
 288 002d 04       		.byte	0x4
 289 002e 07       		.byte	0x7
 290 002f 68010000 		.4byte	.LASF0
 291 0033 03       		.uleb128 0x3
 292 0034 01       		.byte	0x1
 293 0035 06       		.byte	0x6
 294 0036 D5000000 		.4byte	.LASF1
 295 003a 04       		.uleb128 0x4
 296 003b 16010000 		.4byte	.LASF5
 297 003f 02       		.byte	0x2
 298 0040 1D       		.byte	0x1d
 299 0041 45000000 		.4byte	0x45
 300 0045 03       		.uleb128 0x3
 301 0046 01       		.byte	0x1
 302 0047 08       		.byte	0x8
 303 0048 32010000 		.4byte	.LASF2
 304 004c 03       		.uleb128 0x3
 305 004d 02       		.byte	0x2
 306 004e 05       		.byte	0x5
 307 004f 72000000 		.4byte	.LASF3
 308 0053 03       		.uleb128 0x3
 309 0054 02       		.byte	0x2
 310 0055 07       		.byte	0x7
 311 0056 88010000 		.4byte	.LASF4
 312 005a 04       		.uleb128 0x4
 313 005b B0020000 		.4byte	.LASF6
 314 005f 02       		.byte	0x2
 315 0060 3F       		.byte	0x3f
 316 0061 65000000 		.4byte	0x65
 317 0065 03       		.uleb128 0x3
 318 0066 04       		.byte	0x4
 319 0067 05       		.byte	0x5
 320 0068 F6000000 		.4byte	.LASF7
 321 006c 04       		.uleb128 0x4
 322 006d 8A000000 		.4byte	.LASF8
 323 0071 02       		.byte	0x2
 324 0072 41       		.byte	0x41
 325 0073 77000000 		.4byte	0x77
 326 0077 03       		.uleb128 0x3
 327 0078 04       		.byte	0x4
 328 0079 07       		.byte	0x7
 329 007a 99020000 		.4byte	.LASF9
 330 007e 03       		.uleb128 0x3
 331 007f 08       		.byte	0x8
 332 0080 05       		.byte	0x5
 333 0081 E8000000 		.4byte	.LASF10
 334 0085 03       		.uleb128 0x3
 335 0086 08       		.byte	0x8
 336 0087 07       		.byte	0x7
 337 0088 48010000 		.4byte	.LASF11
 338 008c 04       		.uleb128 0x4
 339 008d B8000000 		.4byte	.LASF12
 340 0091 03       		.byte	0x3
 341 0092 2A       		.byte	0x2a
 342 0093 3A000000 		.4byte	0x3a
ARM GAS  /tmp/ccp4ied6.s 			page 7


 343 0097 04       		.uleb128 0x4
 344 0098 DA010000 		.4byte	.LASF13
 345 009c 03       		.byte	0x3
 346 009d 41       		.byte	0x41
 347 009e 5A000000 		.4byte	0x5a
 348 00a2 04       		.uleb128 0x4
 349 00a3 5F010000 		.4byte	.LASF14
 350 00a7 03       		.byte	0x3
 351 00a8 42       		.byte	0x42
 352 00a9 6C000000 		.4byte	0x6c
 353 00ad 03       		.uleb128 0x3
 354 00ae 01       		.byte	0x1
 355 00af 02       		.byte	0x2
 356 00b0 EC010000 		.4byte	.LASF15
 357 00b4 05       		.uleb128 0x5
 358 00b5 A2000000 		.4byte	0xa2
 359 00b9 03       		.uleb128 0x3
 360 00ba 04       		.byte	0x4
 361 00bb 07       		.byte	0x7
 362 00bc 7C000000 		.4byte	.LASF16
 363 00c0 03       		.uleb128 0x3
 364 00c1 01       		.byte	0x1
 365 00c2 08       		.byte	0x8
 366 00c3 D5010000 		.4byte	.LASF17
 367 00c7 05       		.uleb128 0x5
 368 00c8 97000000 		.4byte	0x97
 369 00cc 06       		.uleb128 0x6
 370 00cd 1C       		.byte	0x1c
 371 00ce 04       		.byte	0x4
 372 00cf F803     		.2byte	0x3f8
 373 00d1 31010000 		.4byte	0x131
 374 00d5 07       		.uleb128 0x7
 375 00d6 43524C00 		.ascii	"CRL\000"
 376 00da 04       		.byte	0x4
 377 00db FA03     		.2byte	0x3fa
 378 00dd B4000000 		.4byte	0xb4
 379 00e1 00       		.byte	0
 380 00e2 07       		.uleb128 0x7
 381 00e3 43524800 		.ascii	"CRH\000"
 382 00e7 04       		.byte	0x4
 383 00e8 FB03     		.2byte	0x3fb
 384 00ea B4000000 		.4byte	0xb4
 385 00ee 04       		.byte	0x4
 386 00ef 07       		.uleb128 0x7
 387 00f0 49445200 		.ascii	"IDR\000"
 388 00f4 04       		.byte	0x4
 389 00f5 FC03     		.2byte	0x3fc
 390 00f7 B4000000 		.4byte	0xb4
 391 00fb 08       		.byte	0x8
 392 00fc 07       		.uleb128 0x7
 393 00fd 4F445200 		.ascii	"ODR\000"
 394 0101 04       		.byte	0x4
 395 0102 FD03     		.2byte	0x3fd
 396 0104 B4000000 		.4byte	0xb4
 397 0108 0C       		.byte	0xc
 398 0109 08       		.uleb128 0x8
 399 010a A3000000 		.4byte	.LASF18
ARM GAS  /tmp/ccp4ied6.s 			page 8


 400 010e 04       		.byte	0x4
 401 010f FE03     		.2byte	0x3fe
 402 0111 B4000000 		.4byte	0xb4
 403 0115 10       		.byte	0x10
 404 0116 07       		.uleb128 0x7
 405 0117 42525200 		.ascii	"BRR\000"
 406 011b 04       		.byte	0x4
 407 011c FF03     		.2byte	0x3ff
 408 011e B4000000 		.4byte	0xb4
 409 0122 14       		.byte	0x14
 410 0123 08       		.uleb128 0x8
 411 0124 D3020000 		.4byte	.LASF19
 412 0128 04       		.byte	0x4
 413 0129 0004     		.2byte	0x400
 414 012b B4000000 		.4byte	0xb4
 415 012f 18       		.byte	0x18
 416 0130 00       		.byte	0
 417 0131 09       		.uleb128 0x9
 418 0132 00000000 		.4byte	.LASF20
 419 0136 04       		.byte	0x4
 420 0137 0104     		.2byte	0x401
 421 0139 CC000000 		.4byte	0xcc
 422 013d 06       		.uleb128 0x6
 423 013e 28       		.byte	0x28
 424 013f 04       		.byte	0x4
 425 0140 4304     		.2byte	0x443
 426 0142 C8010000 		.4byte	0x1c8
 427 0146 07       		.uleb128 0x7
 428 0147 435200   		.ascii	"CR\000"
 429 014a 04       		.byte	0x4
 430 014b 4504     		.2byte	0x445
 431 014d B4000000 		.4byte	0xb4
 432 0151 00       		.byte	0
 433 0152 08       		.uleb128 0x8
 434 0153 CE020000 		.4byte	.LASF21
 435 0157 04       		.byte	0x4
 436 0158 4604     		.2byte	0x446
 437 015a B4000000 		.4byte	0xb4
 438 015e 04       		.byte	0x4
 439 015f 07       		.uleb128 0x7
 440 0160 43495200 		.ascii	"CIR\000"
 441 0164 04       		.byte	0x4
 442 0165 4704     		.2byte	0x447
 443 0167 B4000000 		.4byte	0xb4
 444 016b 08       		.byte	0x8
 445 016c 08       		.uleb128 0x8
 446 016d 0D010000 		.4byte	.LASF22
 447 0171 04       		.byte	0x4
 448 0172 4804     		.2byte	0x448
 449 0174 B4000000 		.4byte	0xb4
 450 0178 0C       		.byte	0xc
 451 0179 08       		.uleb128 0x8
 452 017a 95000000 		.4byte	.LASF23
 453 017e 04       		.byte	0x4
 454 017f 4904     		.2byte	0x449
 455 0181 B4000000 		.4byte	0xb4
 456 0185 10       		.byte	0x10
ARM GAS  /tmp/ccp4ied6.s 			page 9


 457 0186 08       		.uleb128 0x8
 458 0187 06010000 		.4byte	.LASF24
 459 018b 04       		.byte	0x4
 460 018c 4A04     		.2byte	0x44a
 461 018e B4000000 		.4byte	0xb4
 462 0192 14       		.byte	0x14
 463 0193 08       		.uleb128 0x8
 464 0194 40010000 		.4byte	.LASF25
 465 0198 04       		.byte	0x4
 466 0199 4B04     		.2byte	0x44b
 467 019b B4000000 		.4byte	0xb4
 468 019f 18       		.byte	0x18
 469 01a0 08       		.uleb128 0x8
 470 01a1 C0000000 		.4byte	.LASF26
 471 01a5 04       		.byte	0x4
 472 01a6 4C04     		.2byte	0x44c
 473 01a8 B4000000 		.4byte	0xb4
 474 01ac 1C       		.byte	0x1c
 475 01ad 08       		.uleb128 0x8
 476 01ae 85000000 		.4byte	.LASF27
 477 01b2 04       		.byte	0x4
 478 01b3 4D04     		.2byte	0x44d
 479 01b5 B4000000 		.4byte	0xb4
 480 01b9 20       		.byte	0x20
 481 01ba 07       		.uleb128 0x7
 482 01bb 43535200 		.ascii	"CSR\000"
 483 01bf 04       		.byte	0x4
 484 01c0 4E04     		.2byte	0x44e
 485 01c2 B4000000 		.4byte	0xb4
 486 01c6 24       		.byte	0x24
 487 01c7 00       		.byte	0
 488 01c8 09       		.uleb128 0x9
 489 01c9 14000000 		.4byte	.LASF28
 490 01cd 04       		.byte	0x4
 491 01ce 5904     		.2byte	0x459
 492 01d0 3D010000 		.4byte	0x13d
 493 01d4 0A       		.uleb128 0xa
 494 01d5 0C       		.byte	0xc
 495 01d6 05       		.byte	0x5
 496 01d7 38       		.byte	0x38
 497 01d8 01020000 		.4byte	0x201
 498 01dc 0B       		.uleb128 0xb
 499 01dd 6F647200 		.ascii	"odr\000"
 500 01e1 05       		.byte	0x5
 501 01e2 3A       		.byte	0x3a
 502 01e3 A2000000 		.4byte	0xa2
 503 01e7 00       		.byte	0
 504 01e8 0B       		.uleb128 0xb
 505 01e9 63726C00 		.ascii	"crl\000"
 506 01ed 05       		.byte	0x5
 507 01ee 3C       		.byte	0x3c
 508 01ef A2000000 		.4byte	0xa2
 509 01f3 04       		.byte	0x4
 510 01f4 0B       		.uleb128 0xb
 511 01f5 63726800 		.ascii	"crh\000"
 512 01f9 05       		.byte	0x5
 513 01fa 3E       		.byte	0x3e
ARM GAS  /tmp/ccp4ied6.s 			page 10


 514 01fb A2000000 		.4byte	0xa2
 515 01ff 08       		.byte	0x8
 516 0200 00       		.byte	0
 517 0201 04       		.uleb128 0x4
 518 0202 75010000 		.4byte	.LASF29
 519 0206 05       		.byte	0x5
 520 0207 3F       		.byte	0x3f
 521 0208 D4010000 		.4byte	0x1d4
 522 020c 0A       		.uleb128 0xa
 523 020d 3C       		.byte	0x3c
 524 020e 05       		.byte	0x5
 525 020f 48       		.byte	0x48
 526 0210 51020000 		.4byte	0x251
 527 0214 0C       		.uleb128 0xc
 528 0215 E1000000 		.4byte	.LASF30
 529 0219 05       		.byte	0x5
 530 021a 4A       		.byte	0x4a
 531 021b 01020000 		.4byte	0x201
 532 021f 00       		.byte	0
 533 0220 0C       		.uleb128 0xc
 534 0221 C7020000 		.4byte	.LASF31
 535 0225 05       		.byte	0x5
 536 0226 4C       		.byte	0x4c
 537 0227 01020000 		.4byte	0x201
 538 022b 0C       		.byte	0xc
 539 022c 0C       		.uleb128 0xc
 540 022d 0D000000 		.4byte	.LASF32
 541 0231 05       		.byte	0x5
 542 0232 4E       		.byte	0x4e
 543 0233 01020000 		.4byte	0x201
 544 0237 18       		.byte	0x18
 545 0238 0C       		.uleb128 0xc
 546 0239 FF000000 		.4byte	.LASF33
 547 023d 05       		.byte	0x5
 548 023e 50       		.byte	0x50
 549 023f 01020000 		.4byte	0x201
 550 0243 24       		.byte	0x24
 551 0244 0C       		.uleb128 0xc
 552 0245 8D020000 		.4byte	.LASF34
 553 0249 05       		.byte	0x5
 554 024a 53       		.byte	0x53
 555 024b 01020000 		.4byte	0x201
 556 024f 30       		.byte	0x30
 557 0250 00       		.byte	0
 558 0251 04       		.uleb128 0x4
 559 0252 E2010000 		.4byte	.LASF35
 560 0256 05       		.byte	0x5
 561 0257 5D       		.byte	0x5d
 562 0258 0C020000 		.4byte	0x20c
 563 025c 04       		.uleb128 0x4
 564 025d C8000000 		.4byte	.LASF36
 565 0261 05       		.byte	0x5
 566 0262 6D       		.byte	0x6d
 567 0263 A2000000 		.4byte	0xa2
 568 0267 04       		.uleb128 0x4
 569 0268 AF000000 		.4byte	.LASF37
 570 026c 05       		.byte	0x5
ARM GAS  /tmp/ccp4ied6.s 			page 11


 571 026d 72       		.byte	0x72
 572 026e A2000000 		.4byte	0xa2
 573 0272 04       		.uleb128 0x4
 574 0273 20010000 		.4byte	.LASF38
 575 0277 05       		.byte	0x5
 576 0278 7A       		.byte	0x7a
 577 0279 7D020000 		.4byte	0x27d
 578 027d 0D       		.uleb128 0xd
 579 027e 04       		.byte	0x4
 580 027f 31010000 		.4byte	0x131
 581 0283 0E       		.uleb128 0xe
 582 0284 36000000 		.4byte	.LASF39
 583 0288 01       		.byte	0x1
 584 0289 4D       		.byte	0x4d
 585 028a 00000000 		.4byte	.LFB63
 586 028e 6C000000 		.4byte	.LFE63-.LFB63
 587 0292 01       		.uleb128 0x1
 588 0293 9C       		.byte	0x9c
 589 0294 A6020000 		.4byte	0x2a6
 590 0298 0F       		.uleb128 0xf
 591 0299 A8000000 		.4byte	.LASF41
 592 029d 01       		.byte	0x1
 593 029e 4D       		.byte	0x4d
 594 029f A6020000 		.4byte	0x2a6
 595 02a3 01       		.uleb128 0x1
 596 02a4 50       		.byte	0x50
 597 02a5 00       		.byte	0
 598 02a6 0D       		.uleb128 0xd
 599 02a7 04       		.byte	0x4
 600 02a8 AC020000 		.4byte	0x2ac
 601 02ac 10       		.uleb128 0x10
 602 02ad 51020000 		.4byte	0x251
 603 02b1 0E       		.uleb128 0xe
 604 02b2 20000000 		.4byte	.LASF40
 605 02b6 01       		.byte	0x1
 606 02b7 83       		.byte	0x83
 607 02b8 00000000 		.4byte	.LFB64
 608 02bc 68000000 		.4byte	.LFE64-.LFB64
 609 02c0 01       		.uleb128 0x1
 610 02c1 9C       		.byte	0x9c
 611 02c2 59030000 		.4byte	0x359
 612 02c6 0F       		.uleb128 0xf
 613 02c7 94020000 		.4byte	.LASF42
 614 02cb 01       		.byte	0x1
 615 02cc 83       		.byte	0x83
 616 02cd 72020000 		.4byte	0x272
 617 02d1 01       		.uleb128 0x1
 618 02d2 50       		.byte	0x50
 619 02d3 11       		.uleb128 0x11
 620 02d4 AB020000 		.4byte	.LASF43
 621 02d8 01       		.byte	0x1
 622 02d9 84       		.byte	0x84
 623 02da 5C020000 		.4byte	0x25c
 624 02de 00000000 		.4byte	.LLST0
 625 02e2 11       		.uleb128 0x11
 626 02e3 9E000000 		.4byte	.LASF44
 627 02e7 01       		.byte	0x1
ARM GAS  /tmp/ccp4ied6.s 			page 12


 628 02e8 85       		.byte	0x85
 629 02e9 67020000 		.4byte	0x267
 630 02ed 29000000 		.4byte	.LLST1
 631 02f1 12       		.uleb128 0x12
 632 02f2 2B010000 		.4byte	.LASF45
 633 02f6 01       		.byte	0x1
 634 02f7 86       		.byte	0x86
 635 02f8 69030000 		.4byte	0x369
 636 02fc 05       		.uleb128 0x5
 637 02fd 03       		.byte	0x3
 638 02fe 00000000 		.4byte	cfgtab.6062
 639 0302 13       		.uleb128 0x13
 640 0303 6D6800   		.ascii	"mh\000"
 641 0306 01       		.byte	0x1
 642 0307 9A       		.byte	0x9a
 643 0308 A2000000 		.4byte	0xa2
 644 030c 55000000 		.4byte	.LLST2
 645 0310 13       		.uleb128 0x13
 646 0311 6D6C00   		.ascii	"ml\000"
 647 0314 01       		.byte	0x1
 648 0315 9A       		.byte	0x9a
 649 0316 A2000000 		.4byte	0xa2
 650 031a 74000000 		.4byte	.LLST3
 651 031e 13       		.uleb128 0x13
 652 031f 63726800 		.ascii	"crh\000"
 653 0323 01       		.byte	0x1
 654 0324 9A       		.byte	0x9a
 655 0325 A2000000 		.4byte	0xa2
 656 0329 93000000 		.4byte	.LLST4
 657 032d 13       		.uleb128 0x13
 658 032e 63726C00 		.ascii	"crl\000"
 659 0332 01       		.byte	0x1
 660 0333 9A       		.byte	0x9a
 661 0334 A2000000 		.4byte	0xa2
 662 0338 B2000000 		.4byte	.LLST5
 663 033c 13       		.uleb128 0x13
 664 033d 63666700 		.ascii	"cfg\000"
 665 0341 01       		.byte	0x1
 666 0342 9A       		.byte	0x9a
 667 0343 A2000000 		.4byte	0xa2
 668 0347 DC000000 		.4byte	.LLST6
 669 034b 13       		.uleb128 0x13
 670 034c 6900     		.ascii	"i\000"
 671 034e 01       		.byte	0x1
 672 034f 9B       		.byte	0x9b
 673 0350 2C000000 		.4byte	0x2c
 674 0354 08010000 		.4byte	.LLST7
 675 0358 00       		.byte	0
 676 0359 14       		.uleb128 0x14
 677 035a 8C000000 		.4byte	0x8c
 678 035e 69030000 		.4byte	0x369
 679 0362 15       		.uleb128 0x15
 680 0363 B9000000 		.4byte	0xb9
 681 0367 11       		.byte	0x11
 682 0368 00       		.byte	0
 683 0369 10       		.uleb128 0x10
 684 036a 59030000 		.4byte	0x359
ARM GAS  /tmp/ccp4ied6.s 			page 13


 685 036e 16       		.uleb128 0x16
 686 036f BA020000 		.4byte	.LASF49
 687 0373 06       		.byte	0x6
 688 0374 0706     		.2byte	0x607
 689 0376 C7000000 		.4byte	0xc7
 690 037a 00       		.byte	0
 691              		.section	.debug_abbrev,"",%progbits
 692              	.Ldebug_abbrev0:
 693 0000 01       		.uleb128 0x1
 694 0001 11       		.uleb128 0x11
 695 0002 01       		.byte	0x1
 696 0003 25       		.uleb128 0x25
 697 0004 0E       		.uleb128 0xe
 698 0005 13       		.uleb128 0x13
 699 0006 0B       		.uleb128 0xb
 700 0007 03       		.uleb128 0x3
 701 0008 0E       		.uleb128 0xe
 702 0009 1B       		.uleb128 0x1b
 703 000a 0E       		.uleb128 0xe
 704 000b 55       		.uleb128 0x55
 705 000c 17       		.uleb128 0x17
 706 000d 11       		.uleb128 0x11
 707 000e 01       		.uleb128 0x1
 708 000f 10       		.uleb128 0x10
 709 0010 17       		.uleb128 0x17
 710 0011 00       		.byte	0
 711 0012 00       		.byte	0
 712 0013 02       		.uleb128 0x2
 713 0014 24       		.uleb128 0x24
 714 0015 00       		.byte	0
 715 0016 0B       		.uleb128 0xb
 716 0017 0B       		.uleb128 0xb
 717 0018 3E       		.uleb128 0x3e
 718 0019 0B       		.uleb128 0xb
 719 001a 03       		.uleb128 0x3
 720 001b 08       		.uleb128 0x8
 721 001c 00       		.byte	0
 722 001d 00       		.byte	0
 723 001e 03       		.uleb128 0x3
 724 001f 24       		.uleb128 0x24
 725 0020 00       		.byte	0
 726 0021 0B       		.uleb128 0xb
 727 0022 0B       		.uleb128 0xb
 728 0023 3E       		.uleb128 0x3e
 729 0024 0B       		.uleb128 0xb
 730 0025 03       		.uleb128 0x3
 731 0026 0E       		.uleb128 0xe
 732 0027 00       		.byte	0
 733 0028 00       		.byte	0
 734 0029 04       		.uleb128 0x4
 735 002a 16       		.uleb128 0x16
 736 002b 00       		.byte	0
 737 002c 03       		.uleb128 0x3
 738 002d 0E       		.uleb128 0xe
 739 002e 3A       		.uleb128 0x3a
 740 002f 0B       		.uleb128 0xb
 741 0030 3B       		.uleb128 0x3b
ARM GAS  /tmp/ccp4ied6.s 			page 14


 742 0031 0B       		.uleb128 0xb
 743 0032 49       		.uleb128 0x49
 744 0033 13       		.uleb128 0x13
 745 0034 00       		.byte	0
 746 0035 00       		.byte	0
 747 0036 05       		.uleb128 0x5
 748 0037 35       		.uleb128 0x35
 749 0038 00       		.byte	0
 750 0039 49       		.uleb128 0x49
 751 003a 13       		.uleb128 0x13
 752 003b 00       		.byte	0
 753 003c 00       		.byte	0
 754 003d 06       		.uleb128 0x6
 755 003e 13       		.uleb128 0x13
 756 003f 01       		.byte	0x1
 757 0040 0B       		.uleb128 0xb
 758 0041 0B       		.uleb128 0xb
 759 0042 3A       		.uleb128 0x3a
 760 0043 0B       		.uleb128 0xb
 761 0044 3B       		.uleb128 0x3b
 762 0045 05       		.uleb128 0x5
 763 0046 01       		.uleb128 0x1
 764 0047 13       		.uleb128 0x13
 765 0048 00       		.byte	0
 766 0049 00       		.byte	0
 767 004a 07       		.uleb128 0x7
 768 004b 0D       		.uleb128 0xd
 769 004c 00       		.byte	0
 770 004d 03       		.uleb128 0x3
 771 004e 08       		.uleb128 0x8
 772 004f 3A       		.uleb128 0x3a
 773 0050 0B       		.uleb128 0xb
 774 0051 3B       		.uleb128 0x3b
 775 0052 05       		.uleb128 0x5
 776 0053 49       		.uleb128 0x49
 777 0054 13       		.uleb128 0x13
 778 0055 38       		.uleb128 0x38
 779 0056 0B       		.uleb128 0xb
 780 0057 00       		.byte	0
 781 0058 00       		.byte	0
 782 0059 08       		.uleb128 0x8
 783 005a 0D       		.uleb128 0xd
 784 005b 00       		.byte	0
 785 005c 03       		.uleb128 0x3
 786 005d 0E       		.uleb128 0xe
 787 005e 3A       		.uleb128 0x3a
 788 005f 0B       		.uleb128 0xb
 789 0060 3B       		.uleb128 0x3b
 790 0061 05       		.uleb128 0x5
 791 0062 49       		.uleb128 0x49
 792 0063 13       		.uleb128 0x13
 793 0064 38       		.uleb128 0x38
 794 0065 0B       		.uleb128 0xb
 795 0066 00       		.byte	0
 796 0067 00       		.byte	0
 797 0068 09       		.uleb128 0x9
 798 0069 16       		.uleb128 0x16
ARM GAS  /tmp/ccp4ied6.s 			page 15


 799 006a 00       		.byte	0
 800 006b 03       		.uleb128 0x3
 801 006c 0E       		.uleb128 0xe
 802 006d 3A       		.uleb128 0x3a
 803 006e 0B       		.uleb128 0xb
 804 006f 3B       		.uleb128 0x3b
 805 0070 05       		.uleb128 0x5
 806 0071 49       		.uleb128 0x49
 807 0072 13       		.uleb128 0x13
 808 0073 00       		.byte	0
 809 0074 00       		.byte	0
 810 0075 0A       		.uleb128 0xa
 811 0076 13       		.uleb128 0x13
 812 0077 01       		.byte	0x1
 813 0078 0B       		.uleb128 0xb
 814 0079 0B       		.uleb128 0xb
 815 007a 3A       		.uleb128 0x3a
 816 007b 0B       		.uleb128 0xb
 817 007c 3B       		.uleb128 0x3b
 818 007d 0B       		.uleb128 0xb
 819 007e 01       		.uleb128 0x1
 820 007f 13       		.uleb128 0x13
 821 0080 00       		.byte	0
 822 0081 00       		.byte	0
 823 0082 0B       		.uleb128 0xb
 824 0083 0D       		.uleb128 0xd
 825 0084 00       		.byte	0
 826 0085 03       		.uleb128 0x3
 827 0086 08       		.uleb128 0x8
 828 0087 3A       		.uleb128 0x3a
 829 0088 0B       		.uleb128 0xb
 830 0089 3B       		.uleb128 0x3b
 831 008a 0B       		.uleb128 0xb
 832 008b 49       		.uleb128 0x49
 833 008c 13       		.uleb128 0x13
 834 008d 38       		.uleb128 0x38
 835 008e 0B       		.uleb128 0xb
 836 008f 00       		.byte	0
 837 0090 00       		.byte	0
 838 0091 0C       		.uleb128 0xc
 839 0092 0D       		.uleb128 0xd
 840 0093 00       		.byte	0
 841 0094 03       		.uleb128 0x3
 842 0095 0E       		.uleb128 0xe
 843 0096 3A       		.uleb128 0x3a
 844 0097 0B       		.uleb128 0xb
 845 0098 3B       		.uleb128 0x3b
 846 0099 0B       		.uleb128 0xb
 847 009a 49       		.uleb128 0x49
 848 009b 13       		.uleb128 0x13
 849 009c 38       		.uleb128 0x38
 850 009d 0B       		.uleb128 0xb
 851 009e 00       		.byte	0
 852 009f 00       		.byte	0
 853 00a0 0D       		.uleb128 0xd
 854 00a1 0F       		.uleb128 0xf
 855 00a2 00       		.byte	0
ARM GAS  /tmp/ccp4ied6.s 			page 16


 856 00a3 0B       		.uleb128 0xb
 857 00a4 0B       		.uleb128 0xb
 858 00a5 49       		.uleb128 0x49
 859 00a6 13       		.uleb128 0x13
 860 00a7 00       		.byte	0
 861 00a8 00       		.byte	0
 862 00a9 0E       		.uleb128 0xe
 863 00aa 2E       		.uleb128 0x2e
 864 00ab 01       		.byte	0x1
 865 00ac 3F       		.uleb128 0x3f
 866 00ad 19       		.uleb128 0x19
 867 00ae 03       		.uleb128 0x3
 868 00af 0E       		.uleb128 0xe
 869 00b0 3A       		.uleb128 0x3a
 870 00b1 0B       		.uleb128 0xb
 871 00b2 3B       		.uleb128 0x3b
 872 00b3 0B       		.uleb128 0xb
 873 00b4 27       		.uleb128 0x27
 874 00b5 19       		.uleb128 0x19
 875 00b6 11       		.uleb128 0x11
 876 00b7 01       		.uleb128 0x1
 877 00b8 12       		.uleb128 0x12
 878 00b9 06       		.uleb128 0x6
 879 00ba 40       		.uleb128 0x40
 880 00bb 18       		.uleb128 0x18
 881 00bc 9742     		.uleb128 0x2117
 882 00be 19       		.uleb128 0x19
 883 00bf 01       		.uleb128 0x1
 884 00c0 13       		.uleb128 0x13
 885 00c1 00       		.byte	0
 886 00c2 00       		.byte	0
 887 00c3 0F       		.uleb128 0xf
 888 00c4 05       		.uleb128 0x5
 889 00c5 00       		.byte	0
 890 00c6 03       		.uleb128 0x3
 891 00c7 0E       		.uleb128 0xe
 892 00c8 3A       		.uleb128 0x3a
 893 00c9 0B       		.uleb128 0xb
 894 00ca 3B       		.uleb128 0x3b
 895 00cb 0B       		.uleb128 0xb
 896 00cc 49       		.uleb128 0x49
 897 00cd 13       		.uleb128 0x13
 898 00ce 02       		.uleb128 0x2
 899 00cf 18       		.uleb128 0x18
 900 00d0 00       		.byte	0
 901 00d1 00       		.byte	0
 902 00d2 10       		.uleb128 0x10
 903 00d3 26       		.uleb128 0x26
 904 00d4 00       		.byte	0
 905 00d5 49       		.uleb128 0x49
 906 00d6 13       		.uleb128 0x13
 907 00d7 00       		.byte	0
 908 00d8 00       		.byte	0
 909 00d9 11       		.uleb128 0x11
 910 00da 05       		.uleb128 0x5
 911 00db 00       		.byte	0
 912 00dc 03       		.uleb128 0x3
ARM GAS  /tmp/ccp4ied6.s 			page 17


 913 00dd 0E       		.uleb128 0xe
 914 00de 3A       		.uleb128 0x3a
 915 00df 0B       		.uleb128 0xb
 916 00e0 3B       		.uleb128 0x3b
 917 00e1 0B       		.uleb128 0xb
 918 00e2 49       		.uleb128 0x49
 919 00e3 13       		.uleb128 0x13
 920 00e4 02       		.uleb128 0x2
 921 00e5 17       		.uleb128 0x17
 922 00e6 00       		.byte	0
 923 00e7 00       		.byte	0
 924 00e8 12       		.uleb128 0x12
 925 00e9 34       		.uleb128 0x34
 926 00ea 00       		.byte	0
 927 00eb 03       		.uleb128 0x3
 928 00ec 0E       		.uleb128 0xe
 929 00ed 3A       		.uleb128 0x3a
 930 00ee 0B       		.uleb128 0xb
 931 00ef 3B       		.uleb128 0x3b
 932 00f0 0B       		.uleb128 0xb
 933 00f1 49       		.uleb128 0x49
 934 00f2 13       		.uleb128 0x13
 935 00f3 02       		.uleb128 0x2
 936 00f4 18       		.uleb128 0x18
 937 00f5 00       		.byte	0
 938 00f6 00       		.byte	0
 939 00f7 13       		.uleb128 0x13
 940 00f8 34       		.uleb128 0x34
 941 00f9 00       		.byte	0
 942 00fa 03       		.uleb128 0x3
 943 00fb 08       		.uleb128 0x8
 944 00fc 3A       		.uleb128 0x3a
 945 00fd 0B       		.uleb128 0xb
 946 00fe 3B       		.uleb128 0x3b
 947 00ff 0B       		.uleb128 0xb
 948 0100 49       		.uleb128 0x49
 949 0101 13       		.uleb128 0x13
 950 0102 02       		.uleb128 0x2
 951 0103 17       		.uleb128 0x17
 952 0104 00       		.byte	0
 953 0105 00       		.byte	0
 954 0106 14       		.uleb128 0x14
 955 0107 01       		.uleb128 0x1
 956 0108 01       		.byte	0x1
 957 0109 49       		.uleb128 0x49
 958 010a 13       		.uleb128 0x13
 959 010b 01       		.uleb128 0x1
 960 010c 13       		.uleb128 0x13
 961 010d 00       		.byte	0
 962 010e 00       		.byte	0
 963 010f 15       		.uleb128 0x15
 964 0110 21       		.uleb128 0x21
 965 0111 00       		.byte	0
 966 0112 49       		.uleb128 0x49
 967 0113 13       		.uleb128 0x13
 968 0114 2F       		.uleb128 0x2f
 969 0115 0B       		.uleb128 0xb
ARM GAS  /tmp/ccp4ied6.s 			page 18


 970 0116 00       		.byte	0
 971 0117 00       		.byte	0
 972 0118 16       		.uleb128 0x16
 973 0119 34       		.uleb128 0x34
 974 011a 00       		.byte	0
 975 011b 03       		.uleb128 0x3
 976 011c 0E       		.uleb128 0xe
 977 011d 3A       		.uleb128 0x3a
 978 011e 0B       		.uleb128 0xb
 979 011f 3B       		.uleb128 0x3b
 980 0120 05       		.uleb128 0x5
 981 0121 49       		.uleb128 0x49
 982 0122 13       		.uleb128 0x13
 983 0123 3F       		.uleb128 0x3f
 984 0124 19       		.uleb128 0x19
 985 0125 3C       		.uleb128 0x3c
 986 0126 19       		.uleb128 0x19
 987 0127 00       		.byte	0
 988 0128 00       		.byte	0
 989 0129 00       		.byte	0
 990              		.section	.debug_loc,"",%progbits
 991              	.Ldebug_loc0:
 992              	.LLST0:
 993 0000 00000000 		.4byte	.LVL1
 994 0004 48000000 		.4byte	.LVL14
 995 0008 0100     		.2byte	0x1
 996 000a 51       		.byte	0x51
 997 000b 48000000 		.4byte	.LVL14
 998 000f 4C000000 		.4byte	.LVL15
 999 0013 0100     		.2byte	0x1
 1000 0015 51       		.byte	0x51
 1001 0016 5E000000 		.4byte	.LVL21
 1002 001a 68000000 		.4byte	.LFE64
 1003 001e 0100     		.2byte	0x1
 1004 0020 51       		.byte	0x51
 1005 0021 00000000 		.4byte	0
 1006 0025 00000000 		.4byte	0
 1007              	.LLST1:
 1008 0029 00000000 		.4byte	.LVL1
 1009 002d 18000000 		.4byte	.LVL3
 1010 0031 0100     		.2byte	0x1
 1011 0033 52       		.byte	0x52
 1012 0034 18000000 		.4byte	.LVL3
 1013 0038 5E000000 		.4byte	.LVL21
 1014 003c 0400     		.2byte	0x4
 1015 003e F3       		.byte	0xf3
 1016 003f 01       		.uleb128 0x1
 1017 0040 52       		.byte	0x52
 1018 0041 9F       		.byte	0x9f
 1019 0042 5E000000 		.4byte	.LVL21
 1020 0046 68000000 		.4byte	.LFE64
 1021 004a 0100     		.2byte	0x1
 1022 004c 52       		.byte	0x52
 1023 004d 00000000 		.4byte	0
 1024 0051 00000000 		.4byte	0
 1025              	.LLST2:
 1026 0055 12000000 		.4byte	.LVL2
ARM GAS  /tmp/ccp4ied6.s 			page 19


 1027 0059 1A000000 		.4byte	.LVL4
 1028 005d 0200     		.2byte	0x2
 1029 005f 30       		.byte	0x30
 1030 0060 9F       		.byte	0x9f
 1031 0061 1A000000 		.4byte	.LVL4
 1032 0065 4E000000 		.4byte	.LVL16
 1033 0069 0100     		.2byte	0x1
 1034 006b 55       		.byte	0x55
 1035 006c 00000000 		.4byte	0
 1036 0070 00000000 		.4byte	0
 1037              	.LLST3:
 1038 0074 12000000 		.4byte	.LVL2
 1039 0078 1A000000 		.4byte	.LVL4
 1040 007c 0200     		.2byte	0x2
 1041 007e 30       		.byte	0x30
 1042 007f 9F       		.byte	0x9f
 1043 0080 1A000000 		.4byte	.LVL4
 1044 0084 58000000 		.4byte	.LVL19
 1045 0088 0100     		.2byte	0x1
 1046 008a 52       		.byte	0x52
 1047 008b 00000000 		.4byte	0
 1048 008f 00000000 		.4byte	0
 1049              	.LLST4:
 1050 0093 12000000 		.4byte	.LVL2
 1051 0097 1A000000 		.4byte	.LVL4
 1052 009b 0200     		.2byte	0x2
 1053 009d 30       		.byte	0x30
 1054 009e 9F       		.byte	0x9f
 1055 009f 1A000000 		.4byte	.LVL4
 1056 00a3 50000000 		.4byte	.LVL17
 1057 00a7 0100     		.2byte	0x1
 1058 00a9 54       		.byte	0x54
 1059 00aa 00000000 		.4byte	0
 1060 00ae 00000000 		.4byte	0
 1061              	.LLST5:
 1062 00b2 12000000 		.4byte	.LVL2
 1063 00b6 1A000000 		.4byte	.LVL4
 1064 00ba 0200     		.2byte	0x2
 1065 00bc 30       		.byte	0x30
 1066 00bd 9F       		.byte	0x9f
 1067 00be 1A000000 		.4byte	.LVL4
 1068 00c2 26000000 		.4byte	.LVL6
 1069 00c6 0100     		.2byte	0x1
 1070 00c8 53       		.byte	0x53
 1071 00c9 2A000000 		.4byte	.LVL7
 1072 00cd 5A000000 		.4byte	.LVL20
 1073 00d1 0100     		.2byte	0x1
 1074 00d3 53       		.byte	0x53
 1075 00d4 00000000 		.4byte	0
 1076 00d8 00000000 		.4byte	0
 1077              	.LLST6:
 1078 00dc 12000000 		.4byte	.LVL2
 1079 00e0 56000000 		.4byte	.LVL18
 1080 00e4 0100     		.2byte	0x1
 1081 00e6 57       		.byte	0x57
 1082 00e7 56000000 		.4byte	.LVL18
 1083 00eb 5E000000 		.4byte	.LVL21
ARM GAS  /tmp/ccp4ied6.s 			page 20


 1084 00ef 0F00     		.2byte	0xf
 1085 00f1 F3       		.byte	0xf3
 1086 00f2 01       		.uleb128 0x1
 1087 00f3 52       		.byte	0x52
 1088 00f4 03       		.byte	0x3
 1089 00f5 00000000 		.4byte	.LANCHOR0
 1090 00f9 22       		.byte	0x22
 1091 00fa 94       		.byte	0x94
 1092 00fb 01       		.byte	0x1
 1093 00fc 08       		.byte	0x8
 1094 00fd FF       		.byte	0xff
 1095 00fe 1A       		.byte	0x1a
 1096 00ff 9F       		.byte	0x9f
 1097 0100 00000000 		.4byte	0
 1098 0104 00000000 		.4byte	0
 1099              	.LLST7:
 1100 0108 12000000 		.4byte	.LVL2
 1101 010c 1A000000 		.4byte	.LVL4
 1102 0110 0200     		.2byte	0x2
 1103 0112 30       		.byte	0x30
 1104 0113 9F       		.byte	0x9f
 1105 0114 1A000000 		.4byte	.LVL4
 1106 0118 44000000 		.4byte	.LVL13
 1107 011c 0500     		.2byte	0x5
 1108 011e 38       		.byte	0x38
 1109 011f 76       		.byte	0x76
 1110 0120 00       		.sleb128 0
 1111 0121 1C       		.byte	0x1c
 1112 0122 9F       		.byte	0x9f
 1113 0123 44000000 		.4byte	.LVL13
 1114 0127 48000000 		.4byte	.LVL14
 1115 012b 0500     		.2byte	0x5
 1116 012d 37       		.byte	0x37
 1117 012e 76       		.byte	0x76
 1118 012f 00       		.sleb128 0
 1119 0130 1C       		.byte	0x1c
 1120 0131 9F       		.byte	0x9f
 1121 0132 00000000 		.4byte	0
 1122 0136 00000000 		.4byte	0
 1123              		.section	.debug_aranges,"",%progbits
 1124 0000 24000000 		.4byte	0x24
 1125 0004 0200     		.2byte	0x2
 1126 0006 00000000 		.4byte	.Ldebug_info0
 1127 000a 04       		.byte	0x4
 1128 000b 00       		.byte	0
 1129 000c 0000     		.2byte	0
 1130 000e 0000     		.2byte	0
 1131 0010 00000000 		.4byte	.LFB63
 1132 0014 6C000000 		.4byte	.LFE63-.LFB63
 1133 0018 00000000 		.4byte	.LFB64
 1134 001c 68000000 		.4byte	.LFE64-.LFB64
 1135 0020 00000000 		.4byte	0
 1136 0024 00000000 		.4byte	0
 1137              		.section	.debug_ranges,"",%progbits
 1138              	.Ldebug_ranges0:
 1139 0000 00000000 		.4byte	.LFB63
 1140 0004 6C000000 		.4byte	.LFE63
ARM GAS  /tmp/ccp4ied6.s 			page 21


 1141 0008 00000000 		.4byte	.LFB64
 1142 000c 68000000 		.4byte	.LFE64
 1143 0010 00000000 		.4byte	0
 1144 0014 00000000 		.4byte	0
 1145              		.section	.debug_line,"",%progbits
 1146              	.Ldebug_line0:
 1147 0000 88010000 		.section	.debug_str,"MS",%progbits,1
 1147      02000A01 
 1147      00000201 
 1147      FB0E0D00 
 1147      01010101 
 1148              	.LASF20:
 1149 0000 4750494F 		.ascii	"GPIO_TypeDef\000"
 1149      5F547970 
 1149      65446566 
 1149      00
 1150              	.LASF32:
 1151 000d 50434461 		.ascii	"PCData\000"
 1151      746100
 1152              	.LASF28:
 1153 0014 5243435F 		.ascii	"RCC_TypeDef\000"
 1153      54797065 
 1153      44656600 
 1154              	.LASF40:
 1155 0020 5F70616C 		.ascii	"_pal_lld_setgroupmode\000"
 1155      5F6C6C64 
 1155      5F736574 
 1155      67726F75 
 1155      706D6F64 
 1156              	.LASF39:
 1157 0036 5F70616C 		.ascii	"_pal_lld_init\000"
 1157      5F6C6C64 
 1157      5F696E69 
 1157      7400
 1158              	.LASF47:
 1159 0044 2E2E2F2E 		.ascii	"../../os/hal/platforms/STM32/GPIOv1/pal_lld.c\000"
 1159      2E2F6F73 
 1159      2F68616C 
 1159      2F706C61 
 1159      74666F72 
 1160              	.LASF3:
 1161 0072 73686F72 		.ascii	"short int\000"
 1161      7420696E 
 1161      7400
 1162              	.LASF16:
 1163 007c 73697A65 		.ascii	"sizetype\000"
 1163      74797065 
 1163      00
 1164              	.LASF27:
 1165 0085 42444352 		.ascii	"BDCR\000"
 1165      00
 1166              	.LASF8:
 1167 008a 5F5F7569 		.ascii	"__uint32_t\000"
 1167      6E743332 
 1167      5F7400
 1168              	.LASF23:
 1169 0095 41504231 		.ascii	"APB1RSTR\000"
ARM GAS  /tmp/ccp4ied6.s 			page 22


 1169      52535452 
 1169      00
 1170              	.LASF44:
 1171 009e 6D6F6465 		.ascii	"mode\000"
 1171      00
 1172              	.LASF18:
 1173 00a3 42535252 		.ascii	"BSRR\000"
 1173      00
 1174              	.LASF41:
 1175 00a8 636F6E66 		.ascii	"config\000"
 1175      696700
 1176              	.LASF37:
 1177 00af 696F6D6F 		.ascii	"iomode_t\000"
 1177      64655F74 
 1177      00
 1178              	.LASF12:
 1179 00b8 75696E74 		.ascii	"uint8_t\000"
 1179      385F7400 
 1180              	.LASF26:
 1181 00c0 41504231 		.ascii	"APB1ENR\000"
 1181      454E5200 
 1182              	.LASF36:
 1183 00c8 696F706F 		.ascii	"ioportmask_t\000"
 1183      72746D61 
 1183      736B5F74 
 1183      00
 1184              	.LASF1:
 1185 00d5 7369676E 		.ascii	"signed char\000"
 1185      65642063 
 1185      68617200 
 1186              	.LASF30:
 1187 00e1 50414461 		.ascii	"PAData\000"
 1187      746100
 1188              	.LASF10:
 1189 00e8 6C6F6E67 		.ascii	"long long int\000"
 1189      206C6F6E 
 1189      6720696E 
 1189      7400
 1190              	.LASF7:
 1191 00f6 6C6F6E67 		.ascii	"long int\000"
 1191      20696E74 
 1191      00
 1192              	.LASF33:
 1193 00ff 50444461 		.ascii	"PDData\000"
 1193      746100
 1194              	.LASF24:
 1195 0106 41484245 		.ascii	"AHBENR\000"
 1195      4E5200
 1196              	.LASF22:
 1197 010d 41504232 		.ascii	"APB2RSTR\000"
 1197      52535452 
 1197      00
 1198              	.LASF5:
 1199 0116 5F5F7569 		.ascii	"__uint8_t\000"
 1199      6E74385F 
 1199      7400
 1200              	.LASF38:
ARM GAS  /tmp/ccp4ied6.s 			page 23


 1201 0120 696F706F 		.ascii	"ioportid_t\000"
 1201      72746964 
 1201      5F7400
 1202              	.LASF45:
 1203 012b 63666774 		.ascii	"cfgtab\000"
 1203      616200
 1204              	.LASF2:
 1205 0132 756E7369 		.ascii	"unsigned char\000"
 1205      676E6564 
 1205      20636861 
 1205      7200
 1206              	.LASF25:
 1207 0140 41504232 		.ascii	"APB2ENR\000"
 1207      454E5200 
 1208              	.LASF11:
 1209 0148 6C6F6E67 		.ascii	"long long unsigned int\000"
 1209      206C6F6E 
 1209      6720756E 
 1209      7369676E 
 1209      65642069 
 1210              	.LASF14:
 1211 015f 75696E74 		.ascii	"uint32_t\000"
 1211      33325F74 
 1211      00
 1212              	.LASF0:
 1213 0168 756E7369 		.ascii	"unsigned int\000"
 1213      676E6564 
 1213      20696E74 
 1213      00
 1214              	.LASF29:
 1215 0175 73746D33 		.ascii	"stm32_gpio_setup_t\000"
 1215      325F6770 
 1215      696F5F73 
 1215      65747570 
 1215      5F7400
 1216              	.LASF4:
 1217 0188 73686F72 		.ascii	"short unsigned int\000"
 1217      7420756E 
 1217      7369676E 
 1217      65642069 
 1217      6E7400
 1218              	.LASF48:
 1219 019b 2F686F6D 		.ascii	"/home/development/Projects/stm32-tf/firmware/test/L"
 1219      652F6465 
 1219      76656C6F 
 1219      706D656E 
 1219      742F5072 
 1220 01ce 43445F4C 		.ascii	"CD_LED\000"
 1220      454400
 1221              	.LASF17:
 1222 01d5 63686172 		.ascii	"char\000"
 1222      00
 1223              	.LASF13:
 1224 01da 696E7433 		.ascii	"int32_t\000"
 1224      325F7400 
 1225              	.LASF35:
 1226 01e2 50414C43 		.ascii	"PALConfig\000"
ARM GAS  /tmp/ccp4ied6.s 			page 24


 1226      6F6E6669 
 1226      6700
 1227              	.LASF15:
 1228 01ec 5F426F6F 		.ascii	"_Bool\000"
 1228      6C00
 1229              	.LASF46:
 1230 01f2 474E5520 		.ascii	"GNU C 4.8.3 20140820 (release) -mcpu=cortex-m3 -mno"
 1230      4320342E 
 1230      382E3320 
 1230      32303134 
 1230      30383230 
 1231 0225 2D746875 		.ascii	"-thumb-interwork -mthumb -ggdb -O2 -fomit-frame-poi"
 1231      6D622D69 
 1231      6E746572 
 1231      776F726B 
 1231      202D6D74 
 1232 0258 6E746572 		.ascii	"nter -ffunction-sections -fdata-sections -fno-commo"
 1232      202D6666 
 1232      756E6374 
 1232      696F6E2D 
 1232      73656374 
 1233 028b 6E00     		.ascii	"n\000"
 1234              	.LASF34:
 1235 028d 50454461 		.ascii	"PEData\000"
 1235      746100
 1236              	.LASF42:
 1237 0294 706F7274 		.ascii	"port\000"
 1237      00
 1238              	.LASF9:
 1239 0299 6C6F6E67 		.ascii	"long unsigned int\000"
 1239      20756E73 
 1239      69676E65 
 1239      6420696E 
 1239      7400
 1240              	.LASF43:
 1241 02ab 6D61736B 		.ascii	"mask\000"
 1241      00
 1242              	.LASF6:
 1243 02b0 5F5F696E 		.ascii	"__int32_t\000"
 1243      7433325F 
 1243      7400
 1244              	.LASF49:
 1245 02ba 49544D5F 		.ascii	"ITM_RxBuffer\000"
 1245      52784275 
 1245      66666572 
 1245      00
 1246              	.LASF31:
 1247 02c7 50424461 		.ascii	"PBData\000"
 1247      746100
 1248              	.LASF21:
 1249 02ce 43464752 		.ascii	"CFGR\000"
 1249      00
 1250              	.LASF19:
 1251 02d3 4C434B52 		.ascii	"LCKR\000"
 1251      00
 1252              		.ident	"GCC: (4.8.3-9+11) 4.8.3 20140820 (release)"
ARM GAS  /tmp/ccp4ied6.s 			page 25


DEFINED SYMBOLS
                            *ABS*:00000000 pal_lld.c
     /tmp/ccp4ied6.s:19     .text._pal_lld_init:00000000 $t
     /tmp/ccp4ied6.s:24     .text._pal_lld_init:00000000 _pal_lld_init
     /tmp/ccp4ied6.s:112    .text._pal_lld_init:00000058 $d
     /tmp/ccp4ied6.s:121    .text._pal_lld_setgroupmode:00000000 $t
     /tmp/ccp4ied6.s:126    .text._pal_lld_setgroupmode:00000000 _pal_lld_setgroupmode
     /tmp/ccp4ied6.s:234    .text._pal_lld_setgroupmode:00000064 $d
     /tmp/ccp4ied6.s:239    .rodata.cfgtab.6062:00000000 $d
     /tmp/ccp4ied6.s:243    .rodata.cfgtab.6062:00000000 cfgtab.6062
                     .debug_frame:00000010 $d

NO UNDEFINED SYMBOLS
